
a.out:     file format elf64-x86-64


Disassembly of section .init:

0000000000002000 <_init>:
    2000:	f3 0f 1e fa          	endbr64 
    2004:	48 83 ec 08          	sub    $0x8,%rsp
    2008:	48 8b 05 d9 9f 00 00 	mov    0x9fd9(%rip),%rax        # bfe8 <__gmon_start__@Base>
    200f:	48 85 c0             	test   %rax,%rax
    2012:	74 02                	je     2016 <_init+0x16>
    2014:	ff d0                	call   *%rax
    2016:	48 83 c4 08          	add    $0x8,%rsp
    201a:	c3                   	ret    

Disassembly of section .plt:

0000000000002020 <.plt>:
    2020:	ff 35 92 9e 00 00    	push   0x9e92(%rip)        # beb8 <_GLOBAL_OFFSET_TABLE_+0x8>
    2026:	f2 ff 25 93 9e 00 00 	bnd jmp *0x9e93(%rip)        # bec0 <_GLOBAL_OFFSET_TABLE_+0x10>
    202d:	0f 1f 00             	nopl   (%rax)
    2030:	f3 0f 1e fa          	endbr64 
    2034:	68 00 00 00 00       	push   $0x0
    2039:	f2 e9 e1 ff ff ff    	bnd jmp 2020 <_init+0x20>
    203f:	90                   	nop
    2040:	f3 0f 1e fa          	endbr64 
    2044:	68 01 00 00 00       	push   $0x1
    2049:	f2 e9 d1 ff ff ff    	bnd jmp 2020 <_init+0x20>
    204f:	90                   	nop
    2050:	f3 0f 1e fa          	endbr64 
    2054:	68 02 00 00 00       	push   $0x2
    2059:	f2 e9 c1 ff ff ff    	bnd jmp 2020 <_init+0x20>
    205f:	90                   	nop
    2060:	f3 0f 1e fa          	endbr64 
    2064:	68 03 00 00 00       	push   $0x3
    2069:	f2 e9 b1 ff ff ff    	bnd jmp 2020 <_init+0x20>
    206f:	90                   	nop
    2070:	f3 0f 1e fa          	endbr64 
    2074:	68 04 00 00 00       	push   $0x4
    2079:	f2 e9 a1 ff ff ff    	bnd jmp 2020 <_init+0x20>
    207f:	90                   	nop
    2080:	f3 0f 1e fa          	endbr64 
    2084:	68 05 00 00 00       	push   $0x5
    2089:	f2 e9 91 ff ff ff    	bnd jmp 2020 <_init+0x20>
    208f:	90                   	nop
    2090:	f3 0f 1e fa          	endbr64 
    2094:	68 06 00 00 00       	push   $0x6
    2099:	f2 e9 81 ff ff ff    	bnd jmp 2020 <_init+0x20>
    209f:	90                   	nop
    20a0:	f3 0f 1e fa          	endbr64 
    20a4:	68 07 00 00 00       	push   $0x7
    20a9:	f2 e9 71 ff ff ff    	bnd jmp 2020 <_init+0x20>
    20af:	90                   	nop
    20b0:	f3 0f 1e fa          	endbr64 
    20b4:	68 08 00 00 00       	push   $0x8
    20b9:	f2 e9 61 ff ff ff    	bnd jmp 2020 <_init+0x20>
    20bf:	90                   	nop
    20c0:	f3 0f 1e fa          	endbr64 
    20c4:	68 09 00 00 00       	push   $0x9
    20c9:	f2 e9 51 ff ff ff    	bnd jmp 2020 <_init+0x20>
    20cf:	90                   	nop
    20d0:	f3 0f 1e fa          	endbr64 
    20d4:	68 0a 00 00 00       	push   $0xa
    20d9:	f2 e9 41 ff ff ff    	bnd jmp 2020 <_init+0x20>
    20df:	90                   	nop
    20e0:	f3 0f 1e fa          	endbr64 
    20e4:	68 0b 00 00 00       	push   $0xb
    20e9:	f2 e9 31 ff ff ff    	bnd jmp 2020 <_init+0x20>
    20ef:	90                   	nop
    20f0:	f3 0f 1e fa          	endbr64 
    20f4:	68 0c 00 00 00       	push   $0xc
    20f9:	f2 e9 21 ff ff ff    	bnd jmp 2020 <_init+0x20>
    20ff:	90                   	nop
    2100:	f3 0f 1e fa          	endbr64 
    2104:	68 0d 00 00 00       	push   $0xd
    2109:	f2 e9 11 ff ff ff    	bnd jmp 2020 <_init+0x20>
    210f:	90                   	nop
    2110:	f3 0f 1e fa          	endbr64 
    2114:	68 0e 00 00 00       	push   $0xe
    2119:	f2 e9 01 ff ff ff    	bnd jmp 2020 <_init+0x20>
    211f:	90                   	nop
    2120:	f3 0f 1e fa          	endbr64 
    2124:	68 0f 00 00 00       	push   $0xf
    2129:	f2 e9 f1 fe ff ff    	bnd jmp 2020 <_init+0x20>
    212f:	90                   	nop
    2130:	f3 0f 1e fa          	endbr64 
    2134:	68 10 00 00 00       	push   $0x10
    2139:	f2 e9 e1 fe ff ff    	bnd jmp 2020 <_init+0x20>
    213f:	90                   	nop
    2140:	f3 0f 1e fa          	endbr64 
    2144:	68 11 00 00 00       	push   $0x11
    2149:	f2 e9 d1 fe ff ff    	bnd jmp 2020 <_init+0x20>
    214f:	90                   	nop
    2150:	f3 0f 1e fa          	endbr64 
    2154:	68 12 00 00 00       	push   $0x12
    2159:	f2 e9 c1 fe ff ff    	bnd jmp 2020 <_init+0x20>
    215f:	90                   	nop
    2160:	f3 0f 1e fa          	endbr64 
    2164:	68 13 00 00 00       	push   $0x13
    2169:	f2 e9 b1 fe ff ff    	bnd jmp 2020 <_init+0x20>
    216f:	90                   	nop
    2170:	f3 0f 1e fa          	endbr64 
    2174:	68 14 00 00 00       	push   $0x14
    2179:	f2 e9 a1 fe ff ff    	bnd jmp 2020 <_init+0x20>
    217f:	90                   	nop
    2180:	f3 0f 1e fa          	endbr64 
    2184:	68 15 00 00 00       	push   $0x15
    2189:	f2 e9 91 fe ff ff    	bnd jmp 2020 <_init+0x20>
    218f:	90                   	nop
    2190:	f3 0f 1e fa          	endbr64 
    2194:	68 16 00 00 00       	push   $0x16
    2199:	f2 e9 81 fe ff ff    	bnd jmp 2020 <_init+0x20>
    219f:	90                   	nop
    21a0:	f3 0f 1e fa          	endbr64 
    21a4:	68 17 00 00 00       	push   $0x17
    21a9:	f2 e9 71 fe ff ff    	bnd jmp 2020 <_init+0x20>
    21af:	90                   	nop
    21b0:	f3 0f 1e fa          	endbr64 
    21b4:	68 18 00 00 00       	push   $0x18
    21b9:	f2 e9 61 fe ff ff    	bnd jmp 2020 <_init+0x20>
    21bf:	90                   	nop
    21c0:	f3 0f 1e fa          	endbr64 
    21c4:	68 19 00 00 00       	push   $0x19
    21c9:	f2 e9 51 fe ff ff    	bnd jmp 2020 <_init+0x20>
    21cf:	90                   	nop
    21d0:	f3 0f 1e fa          	endbr64 
    21d4:	68 1a 00 00 00       	push   $0x1a
    21d9:	f2 e9 41 fe ff ff    	bnd jmp 2020 <_init+0x20>
    21df:	90                   	nop
    21e0:	f3 0f 1e fa          	endbr64 
    21e4:	68 1b 00 00 00       	push   $0x1b
    21e9:	f2 e9 31 fe ff ff    	bnd jmp 2020 <_init+0x20>
    21ef:	90                   	nop
    21f0:	f3 0f 1e fa          	endbr64 
    21f4:	68 1c 00 00 00       	push   $0x1c
    21f9:	f2 e9 21 fe ff ff    	bnd jmp 2020 <_init+0x20>
    21ff:	90                   	nop
    2200:	f3 0f 1e fa          	endbr64 
    2204:	68 1d 00 00 00       	push   $0x1d
    2209:	f2 e9 11 fe ff ff    	bnd jmp 2020 <_init+0x20>
    220f:	90                   	nop
    2210:	f3 0f 1e fa          	endbr64 
    2214:	68 1e 00 00 00       	push   $0x1e
    2219:	f2 e9 01 fe ff ff    	bnd jmp 2020 <_init+0x20>
    221f:	90                   	nop
    2220:	f3 0f 1e fa          	endbr64 
    2224:	68 1f 00 00 00       	push   $0x1f
    2229:	f2 e9 f1 fd ff ff    	bnd jmp 2020 <_init+0x20>
    222f:	90                   	nop

Disassembly of section .plt.got:

0000000000002230 <__cxa_finalize@plt>:
    2230:	f3 0f 1e fa          	endbr64 
    2234:	f2 ff 25 8d 9d 00 00 	bnd jmp *0x9d8d(%rip)        # bfc8 <__cxa_finalize@GLIBC_2.2.5>
    223b:	0f 1f 44 00 00       	nopl   0x0(%rax,%rax,1)

Disassembly of section .plt.sec:

0000000000002240 <_ZN3tbb6detail2r15spawnERNS0_2d14taskERNS2_18task_group_contextE@plt>:
    2240:	f3 0f 1e fa          	endbr64 
    2244:	f2 ff 25 7d 9c 00 00 	bnd jmp *0x9c7d(%rip)        # bec8 <_ZN3tbb6detail2r15spawnERNS0_2d14taskERNS2_18task_group_contextE@Base>
    224b:	0f 1f 44 00 00       	nopl   0x0(%rax,%rax,1)

0000000000002250 <_ZN3tbb6detail2r18allocateERPNS0_2d117small_object_poolEm@plt>:
    2250:	f3 0f 1e fa          	endbr64 
    2254:	f2 ff 25 75 9c 00 00 	bnd jmp *0x9c75(%rip)        # bed0 <_ZN3tbb6detail2r18allocateERPNS0_2d117small_object_poolEm@Base>
    225b:	0f 1f 44 00 00       	nopl   0x0(%rax,%rax,1)

0000000000002260 <_ZdlPvmSt11align_val_t@plt>:
    2260:	f3 0f 1e fa          	endbr64 
    2264:	f2 ff 25 6d 9c 00 00 	bnd jmp *0x9c6d(%rip)        # bed8 <_ZdlPvmSt11align_val_t@CXXABI_1.3.11>
    226b:	0f 1f 44 00 00       	nopl   0x0(%rax,%rax,1)

0000000000002270 <_ZNSolsEm@plt>:
    2270:	f3 0f 1e fa          	endbr64 
    2274:	f2 ff 25 65 9c 00 00 	bnd jmp *0x9c65(%rip)        # bee0 <_ZNSolsEm@GLIBCXX_3.4>
    227b:	0f 1f 44 00 00       	nopl   0x0(%rax,%rax,1)

0000000000002280 <_ZN3tbb6detail2r15resetERNS0_2d118task_group_contextE@plt>:
    2280:	f3 0f 1e fa          	endbr64 
    2284:	f2 ff 25 5d 9c 00 00 	bnd jmp *0x9c5d(%rip)        # bee8 <_ZN3tbb6detail2r15resetERNS0_2d118task_group_contextE@Base>
    228b:	0f 1f 44 00 00       	nopl   0x0(%rax,%rax,1)

0000000000002290 <_ZSt17__throw_bad_allocv@plt>:
    2290:	f3 0f 1e fa          	endbr64 
    2294:	f2 ff 25 55 9c 00 00 	bnd jmp *0x9c55(%rip)        # bef0 <_ZSt17__throw_bad_allocv@GLIBCXX_3.4>
    229b:	0f 1f 44 00 00       	nopl   0x0(%rax,%rax,1)

00000000000022a0 <_ZN3tbb6detail2r110deallocateERNS0_2d117small_object_poolEPvmRKNS2_14execution_dataE@plt>:
    22a0:	f3 0f 1e fa          	endbr64 
    22a4:	f2 ff 25 4d 9c 00 00 	bnd jmp *0x9c4d(%rip)        # bef8 <_ZN3tbb6detail2r110deallocateERNS0_2d117small_object_poolEPvmRKNS2_14execution_dataE@Base>
    22ab:	0f 1f 44 00 00       	nopl   0x0(%rax,%rax,1)

00000000000022b0 <_ZSt20__throw_length_errorPKc@plt>:
    22b0:	f3 0f 1e fa          	endbr64 
    22b4:	f2 ff 25 45 9c 00 00 	bnd jmp *0x9c45(%rip)        # bf00 <_ZSt20__throw_length_errorPKc@GLIBCXX_3.4>
    22bb:	0f 1f 44 00 00       	nopl   0x0(%rax,%rax,1)

00000000000022c0 <_Znwm@plt>:
    22c0:	f3 0f 1e fa          	endbr64 
    22c4:	f2 ff 25 3d 9c 00 00 	bnd jmp *0x9c3d(%rip)        # bf08 <_Znwm@Base>
    22cb:	0f 1f 44 00 00       	nopl   0x0(%rax,%rax,1)

00000000000022d0 <_ZSt28__throw_bad_array_new_lengthv@plt>:
    22d0:	f3 0f 1e fa          	endbr64 
    22d4:	f2 ff 25 35 9c 00 00 	bnd jmp *0x9c35(%rip)        # bf10 <_ZSt28__throw_bad_array_new_lengthv@GLIBCXX_3.4.29>
    22db:	0f 1f 44 00 00       	nopl   0x0(%rax,%rax,1)

00000000000022e0 <__cxa_atexit@plt>:
    22e0:	f3 0f 1e fa          	endbr64 
    22e4:	f2 ff 25 2d 9c 00 00 	bnd jmp *0x9c2d(%rip)        # bf18 <__cxa_atexit@GLIBC_2.2.5>
    22eb:	0f 1f 44 00 00       	nopl   0x0(%rax,%rax,1)

00000000000022f0 <_ZN3tbb6detail2r110initializeERNS0_2d115task_arena_baseE@plt>:
    22f0:	f3 0f 1e fa          	endbr64 
    22f4:	f2 ff 25 25 9c 00 00 	bnd jmp *0x9c25(%rip)        # bf20 <_ZN3tbb6detail2r110initializeERNS0_2d115task_arena_baseE@Base>
    22fb:	0f 1f 44 00 00       	nopl   0x0(%rax,%rax,1)

0000000000002300 <_ZStlsISt11char_traitsIcEERSt13basic_ostreamIcT_ES5_PKc@plt>:
    2300:	f3 0f 1e fa          	endbr64 
    2304:	f2 ff 25 1d 9c 00 00 	bnd jmp *0x9c1d(%rip)        # bf28 <_ZStlsISt11char_traitsIcEERSt13basic_ostreamIcT_ES5_PKc@GLIBCXX_3.4>
    230b:	0f 1f 44 00 00       	nopl   0x0(%rax,%rax,1)

0000000000002310 <_ZdlPvm@plt>:
    2310:	f3 0f 1e fa          	endbr64 
    2314:	f2 ff 25 15 9c 00 00 	bnd jmp *0x9c15(%rip)        # bf30 <_ZdlPvm@CXXABI_1.3.9>
    231b:	0f 1f 44 00 00       	nopl   0x0(%rax,%rax,1)

0000000000002320 <_ZN3tbb6detail2r17destroyERNS0_2d118task_group_contextE@plt>:
    2320:	f3 0f 1e fa          	endbr64 
    2324:	f2 ff 25 0d 9c 00 00 	bnd jmp *0x9c0d(%rip)        # bf38 <_ZN3tbb6detail2r17destroyERNS0_2d118task_group_contextE@Base>
    232b:	0f 1f 44 00 00       	nopl   0x0(%rax,%rax,1)

0000000000002330 <_ZNSolsEPFRSoS_E@plt>:
    2330:	f3 0f 1e fa          	endbr64 
    2334:	f2 ff 25 05 9c 00 00 	bnd jmp *0x9c05(%rip)        # bf40 <_ZNSolsEPFRSoS_E@GLIBCXX_3.4>
    233b:	0f 1f 44 00 00       	nopl   0x0(%rax,%rax,1)

0000000000002340 <_ZN3tbb6detail2r18allocateERPNS0_2d117small_object_poolEmRKNS2_14execution_dataE@plt>:
    2340:	f3 0f 1e fa          	endbr64 
    2344:	f2 ff 25 fd 9b 00 00 	bnd jmp *0x9bfd(%rip)        # bf48 <_ZN3tbb6detail2r18allocateERPNS0_2d117small_object_poolEmRKNS2_14execution_dataE@Base>
    234b:	0f 1f 44 00 00       	nopl   0x0(%rax,%rax,1)

0000000000002350 <__stack_chk_fail@plt>:
    2350:	f3 0f 1e fa          	endbr64 
    2354:	f2 ff 25 f5 9b 00 00 	bnd jmp *0x9bf5(%rip)        # bf50 <__stack_chk_fail@GLIBC_2.4>
    235b:	0f 1f 44 00 00       	nopl   0x0(%rax,%rax,1)

0000000000002360 <_ZN3tbb6detail2r17executeERNS0_2d115task_arena_baseERNS2_13delegate_baseE@plt>:
    2360:	f3 0f 1e fa          	endbr64 
    2364:	f2 ff 25 ed 9b 00 00 	bnd jmp *0x9bed(%rip)        # bf58 <_ZN3tbb6detail2r17executeERNS0_2d115task_arena_baseERNS2_13delegate_baseE@Base>
    236b:	0f 1f 44 00 00       	nopl   0x0(%rax,%rax,1)

0000000000002370 <_ZN3tbb6detail2r19terminateERNS0_2d115task_arena_baseE@plt>:
    2370:	f3 0f 1e fa          	endbr64 
    2374:	f2 ff 25 e5 9b 00 00 	bnd jmp *0x9be5(%rip)        # bf60 <_ZN3tbb6detail2r19terminateERNS0_2d115task_arena_baseE@Base>
    237b:	0f 1f 44 00 00       	nopl   0x0(%rax,%rax,1)

0000000000002380 <_ZN3tbb6detail2r116execute_and_waitERNS0_2d14taskERNS2_18task_group_contextERNS2_12wait_contextES6_@plt>:
    2380:	f3 0f 1e fa          	endbr64 
    2384:	f2 ff 25 dd 9b 00 00 	bnd jmp *0x9bdd(%rip)        # bf68 <_ZN3tbb6detail2r116execute_and_waitERNS0_2d14taskERNS2_18task_group_contextERNS2_12wait_contextES6_@Base>
    238b:	0f 1f 44 00 00       	nopl   0x0(%rax,%rax,1)

0000000000002390 <sched_yield@plt>:
    2390:	f3 0f 1e fa          	endbr64 
    2394:	f2 ff 25 d5 9b 00 00 	bnd jmp *0x9bd5(%rip)        # bf70 <sched_yield@GLIBC_2.2.5>
    239b:	0f 1f 44 00 00       	nopl   0x0(%rax,%rax,1)

00000000000023a0 <_ZN3tbb6detail2r110initializeERNS0_2d118task_group_contextE@plt>:
    23a0:	f3 0f 1e fa          	endbr64 
    23a4:	f2 ff 25 cd 9b 00 00 	bnd jmp *0x9bcd(%rip)        # bf78 <_ZN3tbb6detail2r110initializeERNS0_2d118task_group_contextE@Base>
    23ab:	0f 1f 44 00 00       	nopl   0x0(%rax,%rax,1)

00000000000023b0 <_ZNSt8ios_base4InitC1Ev@plt>:
    23b0:	f3 0f 1e fa          	endbr64 
    23b4:	f2 ff 25 c5 9b 00 00 	bnd jmp *0x9bc5(%rip)        # bf80 <_ZNSt8ios_base4InitC1Ev@GLIBCXX_3.4>
    23bb:	0f 1f 44 00 00       	nopl   0x0(%rax,%rax,1)

00000000000023c0 <_ZN3tbb6detail2r128is_group_execution_cancelledERNS0_2d118task_group_contextE@plt>:
    23c0:	f3 0f 1e fa          	endbr64 
    23c4:	f2 ff 25 bd 9b 00 00 	bnd jmp *0x9bbd(%rip)        # bf88 <_ZN3tbb6detail2r128is_group_execution_cancelledERNS0_2d118task_group_contextE@Base>
    23cb:	0f 1f 44 00 00       	nopl   0x0(%rax,%rax,1)

00000000000023d0 <_ZN3tbb6detail2r124cache_aligned_deallocateEPv@plt>:
    23d0:	f3 0f 1e fa          	endbr64 
    23d4:	f2 ff 25 b5 9b 00 00 	bnd jmp *0x9bb5(%rip)        # bf90 <_ZN3tbb6detail2r124cache_aligned_deallocateEPv@Base>
    23db:	0f 1f 44 00 00       	nopl   0x0(%rax,%rax,1)

00000000000023e0 <_ZNSolsEi@plt>:
    23e0:	f3 0f 1e fa          	endbr64 
    23e4:	f2 ff 25 ad 9b 00 00 	bnd jmp *0x9bad(%rip)        # bf98 <_ZNSolsEi@GLIBCXX_3.4>
    23eb:	0f 1f 44 00 00       	nopl   0x0(%rax,%rax,1)

00000000000023f0 <_Unwind_Resume@plt>:
    23f0:	f3 0f 1e fa          	endbr64 
    23f4:	f2 ff 25 a5 9b 00 00 	bnd jmp *0x9ba5(%rip)        # bfa0 <_Unwind_Resume@GCC_3.0>
    23fb:	0f 1f 44 00 00       	nopl   0x0(%rax,%rax,1)

0000000000002400 <_ZN3tbb6detail2r114execution_slotEPKNS0_2d114execution_dataE@plt>:
    2400:	f3 0f 1e fa          	endbr64 
    2404:	f2 ff 25 9d 9b 00 00 	bnd jmp *0x9b9d(%rip)        # bfa8 <_ZN3tbb6detail2r114execution_slotEPKNS0_2d114execution_dataE@Base>
    240b:	0f 1f 44 00 00       	nopl   0x0(%rax,%rax,1)

0000000000002410 <_ZN3tbb6detail2r115max_concurrencyEPKNS0_2d115task_arena_baseE@plt>:
    2410:	f3 0f 1e fa          	endbr64 
    2414:	f2 ff 25 95 9b 00 00 	bnd jmp *0x9b95(%rip)        # bfb0 <_ZN3tbb6detail2r115max_concurrencyEPKNS0_2d115task_arena_baseE@Base>
    241b:	0f 1f 44 00 00       	nopl   0x0(%rax,%rax,1)

0000000000002420 <_ZN3tbb6detail2r114notify_waitersEm@plt>:
    2420:	f3 0f 1e fa          	endbr64 
    2424:	f2 ff 25 8d 9b 00 00 	bnd jmp *0x9b8d(%rip)        # bfb8 <_ZN3tbb6detail2r114notify_waitersEm@Base>
    242b:	0f 1f 44 00 00       	nopl   0x0(%rax,%rax,1)

0000000000002430 <_ZN3tbb6detail2r14waitERNS0_2d112wait_contextERNS2_18task_group_contextE@plt>:
    2430:	f3 0f 1e fa          	endbr64 
    2434:	f2 ff 25 85 9b 00 00 	bnd jmp *0x9b85(%rip)        # bfc0 <_ZN3tbb6detail2r14waitERNS0_2d112wait_contextERNS2_18task_group_contextE@Base>
    243b:	0f 1f 44 00 00       	nopl   0x0(%rax,%rax,1)

Disassembly of section .text:

0000000000002440 <_start>:
    2440:	f3 0f 1e fa          	endbr64 
    2444:	31 ed                	xor    %ebp,%ebp
    2446:	49 89 d1             	mov    %rdx,%r9
    2449:	5e                   	pop    %rsi
    244a:	48 89 e2             	mov    %rsp,%rdx
    244d:	48 83 e4 f0          	and    $0xfffffffffffffff0,%rsp
    2451:	50                   	push   %rax
    2452:	54                   	push   %rsp
    2453:	45 31 c0             	xor    %r8d,%r8d
    2456:	31 c9                	xor    %ecx,%ecx
    2458:	48 8d 3d 33 02 00 00 	lea    0x233(%rip),%rdi        # 2692 <main>
    245f:	ff 15 73 9b 00 00    	call   *0x9b73(%rip)        # bfd8 <__libc_start_main@GLIBC_2.34>
    2465:	f4                   	hlt    
    2466:	66 2e 0f 1f 84 00 00 	cs nopw 0x0(%rax,%rax,1)
    246d:	00 00 00 

0000000000002470 <deregister_tm_clones>:
    2470:	48 8d 3d a1 9b 00 00 	lea    0x9ba1(%rip),%rdi        # c018 <__TMC_END__>
    2477:	48 8d 05 9a 9b 00 00 	lea    0x9b9a(%rip),%rax        # c018 <__TMC_END__>
    247e:	48 39 f8             	cmp    %rdi,%rax
    2481:	74 15                	je     2498 <deregister_tm_clones+0x28>
    2483:	48 8b 05 56 9b 00 00 	mov    0x9b56(%rip),%rax        # bfe0 <_ITM_deregisterTMCloneTable@Base>
    248a:	48 85 c0             	test   %rax,%rax
    248d:	74 09                	je     2498 <deregister_tm_clones+0x28>
    248f:	ff e0                	jmp    *%rax
    2491:	0f 1f 80 00 00 00 00 	nopl   0x0(%rax)
    2498:	c3                   	ret    
    2499:	0f 1f 80 00 00 00 00 	nopl   0x0(%rax)

00000000000024a0 <register_tm_clones>:
    24a0:	48 8d 3d 71 9b 00 00 	lea    0x9b71(%rip),%rdi        # c018 <__TMC_END__>
    24a7:	48 8d 35 6a 9b 00 00 	lea    0x9b6a(%rip),%rsi        # c018 <__TMC_END__>
    24ae:	48 29 fe             	sub    %rdi,%rsi
    24b1:	48 89 f0             	mov    %rsi,%rax
    24b4:	48 c1 ee 3f          	shr    $0x3f,%rsi
    24b8:	48 c1 f8 03          	sar    $0x3,%rax
    24bc:	48 01 c6             	add    %rax,%rsi
    24bf:	48 d1 fe             	sar    %rsi
    24c2:	74 14                	je     24d8 <register_tm_clones+0x38>
    24c4:	48 8b 05 25 9b 00 00 	mov    0x9b25(%rip),%rax        # bff0 <_ITM_registerTMCloneTable@Base>
    24cb:	48 85 c0             	test   %rax,%rax
    24ce:	74 08                	je     24d8 <register_tm_clones+0x38>
    24d0:	ff e0                	jmp    *%rax
    24d2:	66 0f 1f 44 00 00    	nopw   0x0(%rax,%rax,1)
    24d8:	c3                   	ret    
    24d9:	0f 1f 80 00 00 00 00 	nopl   0x0(%rax)

00000000000024e0 <__do_global_dtors_aux>:
    24e0:	f3 0f 1e fa          	endbr64 
    24e4:	80 3d 65 9c 00 00 00 	cmpb   $0x0,0x9c65(%rip)        # c150 <completed.0>
    24eb:	75 2b                	jne    2518 <__do_global_dtors_aux+0x38>
    24ed:	55                   	push   %rbp
    24ee:	48 83 3d d2 9a 00 00 	cmpq   $0x0,0x9ad2(%rip)        # bfc8 <__cxa_finalize@GLIBC_2.2.5>
    24f5:	00 
    24f6:	48 89 e5             	mov    %rsp,%rbp
    24f9:	74 0c                	je     2507 <__do_global_dtors_aux+0x27>
    24fb:	48 8b 3d 06 9b 00 00 	mov    0x9b06(%rip),%rdi        # c008 <__dso_handle>
    2502:	e8 29 fd ff ff       	call   2230 <__cxa_finalize@plt>
    2507:	e8 64 ff ff ff       	call   2470 <deregister_tm_clones>
    250c:	c6 05 3d 9c 00 00 01 	movb   $0x1,0x9c3d(%rip)        # c150 <completed.0>
    2513:	5d                   	pop    %rbp
    2514:	c3                   	ret    
    2515:	0f 1f 00             	nopl   (%rax)
    2518:	c3                   	ret    
    2519:	0f 1f 80 00 00 00 00 	nopl   0x0(%rax)

0000000000002520 <frame_dummy>:
    2520:	f3 0f 1e fa          	endbr64 
    2524:	e9 77 ff ff ff       	jmp    24a0 <register_tm_clones>
    2529:	90                   	nop

000000000000252a <_ZN3tbb6detail2d1L26get_initial_partition_headEv>:
    252a:	f3 0f 1e fa          	endbr64 
    252e:	55                   	push   %rbp
    252f:	48 89 e5             	mov    %rsp,%rbp
    2532:	48 83 ec 10          	sub    $0x10,%rsp
    2536:	e8 ac 1b 00 00       	call   40e7 <_ZN3tbb6detail2d120current_thread_indexEv>
    253b:	89 45 fc             	mov    %eax,-0x4(%rbp)
    253e:	83 7d fc fe          	cmpl   $0xfffffffe,-0x4(%rbp)
    2542:	75 07                	jne    254b <_ZN3tbb6detail2d1L26get_initial_partition_headEv+0x21>
    2544:	c7 45 fc 00 00 00 00 	movl   $0x0,-0x4(%rbp)
    254b:	8b 45 fc             	mov    -0x4(%rbp),%eax
    254e:	48 98                	cltq   
    2550:	c9                   	leave  
    2551:	c3                   	ret    

0000000000002552 <_ZN3tbb6detail2d1L14is_stolen_taskERKNS1_14execution_dataE>:
    2552:	f3 0f 1e fa          	endbr64 
    2556:	55                   	push   %rbp
    2557:	48 89 e5             	mov    %rsp,%rbp
    255a:	53                   	push   %rbx
    255b:	48 83 ec 18          	sub    $0x18,%rsp
    255f:	48 89 7d e8          	mov    %rdi,-0x18(%rbp)
    2563:	48 8b 45 e8          	mov    -0x18(%rbp),%rax
    2567:	48 89 c7             	mov    %rax,%rdi
    256a:	e8 24 18 00 00       	call   3d93 <_ZN3tbb6detail2d114execution_slotERKNS1_14execution_dataE>
    256f:	89 c3                	mov    %eax,%ebx
    2571:	48 8b 45 e8          	mov    -0x18(%rbp),%rax
    2575:	48 89 c7             	mov    %rax,%rdi
    2578:	e8 ea 17 00 00       	call   3d67 <_ZN3tbb6detail2d113original_slotERKNS1_14execution_dataE>
    257d:	66 39 c3             	cmp    %ax,%bx
    2580:	0f 95 c0             	setne  %al
    2583:	48 8b 5d f8          	mov    -0x8(%rbp),%rbx
    2587:	c9                   	leave  
    2588:	c3                   	ret    
    2589:	90                   	nop

000000000000258a <_ZZ15square_elementsRSt6vectorIiSaIiEEENKUlRKN3tbb6detail2d113blocked_rangeImEEE_clES9_>:
    258a:	55                   	push   %rbp
    258b:	48 89 e5             	mov    %rsp,%rbp
    258e:	53                   	push   %rbx
    258f:	48 83 ec 28          	sub    $0x28,%rsp
    2593:	48 89 7d d8          	mov    %rdi,-0x28(%rbp)
    2597:	48 89 75 d0          	mov    %rsi,-0x30(%rbp)
    259b:	48 8b 45 d0          	mov    -0x30(%rbp),%rax
    259f:	48 89 c7             	mov    %rax,%rdi
    25a2:	e8 d5 29 00 00       	call   4f7c <_ZNK3tbb6detail2d113blocked_rangeImE5beginEv>
    25a7:	48 89 45 e8          	mov    %rax,-0x18(%rbp)
    25ab:	eb 50                	jmp    25fd <_ZZ15square_elementsRSt6vectorIiSaIiEEENKUlRKN3tbb6detail2d113blocked_rangeImEEE_clES9_+0x73>
    25ad:	48 8b 45 d8          	mov    -0x28(%rbp),%rax
    25b1:	48 8b 00             	mov    (%rax),%rax
    25b4:	48 8b 55 e8          	mov    -0x18(%rbp),%rdx
    25b8:	48 89 d6             	mov    %rdx,%rsi
    25bb:	48 89 c7             	mov    %rax,%rdi
    25be:	e8 e5 29 00 00       	call   4fa8 <_ZNSt6vectorIiSaIiEEixEm>
    25c3:	8b 18                	mov    (%rax),%ebx
    25c5:	48 8b 45 d8          	mov    -0x28(%rbp),%rax
    25c9:	48 8b 00             	mov    (%rax),%rax
    25cc:	48 8b 55 e8          	mov    -0x18(%rbp),%rdx
    25d0:	48 89 d6             	mov    %rdx,%rsi
    25d3:	48 89 c7             	mov    %rax,%rdi
    25d6:	e8 cd 29 00 00       	call   4fa8 <_ZNSt6vectorIiSaIiEEixEm>
    25db:	8b 00                	mov    (%rax),%eax
    25dd:	0f af d8             	imul   %eax,%ebx
    25e0:	48 8b 45 d8          	mov    -0x28(%rbp),%rax
    25e4:	48 8b 00             	mov    (%rax),%rax
    25e7:	48 8b 55 e8          	mov    -0x18(%rbp),%rdx
    25eb:	48 89 d6             	mov    %rdx,%rsi
    25ee:	48 89 c7             	mov    %rax,%rdi
    25f1:	e8 b2 29 00 00       	call   4fa8 <_ZNSt6vectorIiSaIiEEixEm>
    25f6:	89 18                	mov    %ebx,(%rax)
    25f8:	48 83 45 e8 01       	addq   $0x1,-0x18(%rbp)
    25fd:	48 8b 45 d0          	mov    -0x30(%rbp),%rax
    2601:	48 89 c7             	mov    %rax,%rdi
    2604:	e8 89 29 00 00       	call   4f92 <_ZNK3tbb6detail2d113blocked_rangeImE3endEv>
    2609:	48 39 45 e8          	cmp    %rax,-0x18(%rbp)
    260d:	0f 95 c0             	setne  %al
    2610:	84 c0                	test   %al,%al
    2612:	75 99                	jne    25ad <_ZZ15square_elementsRSt6vectorIiSaIiEEENKUlRKN3tbb6detail2d113blocked_rangeImEEE_clES9_+0x23>
    2614:	90                   	nop
    2615:	90                   	nop
    2616:	48 8b 5d f8          	mov    -0x8(%rbp),%rbx
    261a:	c9                   	leave  
    261b:	c3                   	ret    

000000000000261c <_Z15square_elementsRSt6vectorIiSaIiEE>:
    261c:	f3 0f 1e fa          	endbr64 
    2620:	55                   	push   %rbp
    2621:	48 89 e5             	mov    %rsp,%rbp
    2624:	48 83 ec 40          	sub    $0x40,%rsp
    2628:	48 89 7d c8          	mov    %rdi,-0x38(%rbp)
    262c:	64 48 8b 04 25 28 00 	mov    %fs:0x28,%rax
    2633:	00 00 
    2635:	48 89 45 f8          	mov    %rax,-0x8(%rbp)
    2639:	31 c0                	xor    %eax,%eax
    263b:	48 8b 45 c8          	mov    -0x38(%rbp),%rax
    263f:	48 89 45 d8          	mov    %rax,-0x28(%rbp)
    2643:	48 8b 45 c8          	mov    -0x38(%rbp),%rax
    2647:	48 89 c7             	mov    %rax,%rdi
    264a:	e8 c7 28 00 00       	call   4f16 <_ZNKSt6vectorIiSaIiEE4sizeEv>
    264f:	48 89 c2             	mov    %rax,%rdx
    2652:	48 8d 45 e0          	lea    -0x20(%rbp),%rax
    2656:	b9 01 00 00 00       	mov    $0x1,%ecx
    265b:	be 00 00 00 00       	mov    $0x0,%esi
    2660:	48 89 c7             	mov    %rax,%rdi
    2663:	e8 d6 28 00 00       	call   4f3e <_ZN3tbb6detail2d113blocked_rangeImEC1Emmm>
    2668:	48 8d 55 d8          	lea    -0x28(%rbp),%rdx
    266c:	48 8d 45 e0          	lea    -0x20(%rbp),%rax
    2670:	48 89 d6             	mov    %rdx,%rsi
    2673:	48 89 c7             	mov    %rax,%rdi
    2676:	e8 a2 01 00 00       	call   281d <_ZN3tbb6detail2d112parallel_forINS1_13blocked_rangeImEEZ15square_elementsRSt6vectorIiSaIiEEEUlRKS4_E_EEvRKT_RKT0_>
    267b:	90                   	nop
    267c:	48 8b 45 f8          	mov    -0x8(%rbp),%rax
    2680:	64 48 2b 04 25 28 00 	sub    %fs:0x28,%rax
    2687:	00 00 
    2689:	74 05                	je     2690 <_Z15square_elementsRSt6vectorIiSaIiEE+0x74>
    268b:	e8 c0 fc ff ff       	call   2350 <__stack_chk_fail@plt>
    2690:	c9                   	leave  
    2691:	c3                   	ret    

0000000000002692 <main>:
    2692:	f3 0f 1e fa          	endbr64 
    2696:	55                   	push   %rbp
    2697:	48 89 e5             	mov    %rsp,%rbp
    269a:	53                   	push   %rbx
    269b:	48 83 ec 48          	sub    $0x48,%rsp
    269f:	64 48 8b 04 25 28 00 	mov    %fs:0x28,%rax
    26a6:	00 00 
    26a8:	48 89 45 e8          	mov    %rax,-0x18(%rbp)
    26ac:	31 c0                	xor    %eax,%eax
    26ae:	48 8d 45 bf          	lea    -0x41(%rbp),%rax
    26b2:	48 89 c7             	mov    %rax,%rdi
    26b5:	e8 6e 23 00 00       	call   4a28 <_ZNSaIiEC1Ev>
    26ba:	48 8d 55 bf          	lea    -0x41(%rbp),%rdx
    26be:	48 8d 45 d0          	lea    -0x30(%rbp),%rax
    26c2:	be a0 86 01 00       	mov    $0x186a0,%esi
    26c7:	48 89 c7             	mov    %rax,%rdi
    26ca:	e8 99 23 00 00       	call   4a68 <_ZNSt6vectorIiSaIiEEC1EmRKS0_>
    26cf:	48 8d 45 bf          	lea    -0x41(%rbp),%rax
    26d3:	48 89 c7             	mov    %rax,%rdi
    26d6:	e8 6d 23 00 00       	call   4a48 <_ZNSaIiED1Ev>
    26db:	48 c7 45 c0 00 00 00 	movq   $0x0,-0x40(%rbp)
    26e2:	00 
    26e3:	eb 20                	jmp    2705 <main+0x73>
    26e5:	48 8b 45 c0          	mov    -0x40(%rbp),%rax
    26e9:	89 c3                	mov    %eax,%ebx
    26eb:	48 8b 55 c0          	mov    -0x40(%rbp),%rdx
    26ef:	48 8d 45 d0          	lea    -0x30(%rbp),%rax
    26f3:	48 89 d6             	mov    %rdx,%rsi
    26f6:	48 89 c7             	mov    %rax,%rdi
    26f9:	e8 aa 28 00 00       	call   4fa8 <_ZNSt6vectorIiSaIiEEixEm>
    26fe:	89 18                	mov    %ebx,(%rax)
    2700:	48 83 45 c0 01       	addq   $0x1,-0x40(%rbp)
    2705:	48 8d 45 d0          	lea    -0x30(%rbp),%rax
    2709:	48 89 c7             	mov    %rax,%rdi
    270c:	e8 05 28 00 00       	call   4f16 <_ZNKSt6vectorIiSaIiEE4sizeEv>
    2711:	48 39 45 c0          	cmp    %rax,-0x40(%rbp)
    2715:	0f 92 c0             	setb   %al
    2718:	84 c0                	test   %al,%al
    271a:	75 c9                	jne    26e5 <main+0x53>
    271c:	48 8d 45 d0          	lea    -0x30(%rbp),%rax
    2720:	48 89 c7             	mov    %rax,%rdi
    2723:	e8 f4 fe ff ff       	call   261c <_Z15square_elementsRSt6vectorIiSaIiEE>
    2728:	48 c7 45 c8 00 00 00 	movq   $0x0,-0x38(%rbp)
    272f:	00 
    2730:	eb 79                	jmp    27ab <main+0x119>
    2732:	48 8d 05 7f 49 00 00 	lea    0x497f(%rip),%rax        # 70b8 <_ZN3tbb6detail2d1L17finalize_throwingE+0x8>
    2739:	48 89 c6             	mov    %rax,%rsi
    273c:	48 8d 05 fd 98 00 00 	lea    0x98fd(%rip),%rax        # c040 <_ZSt4cout@GLIBCXX_3.4>
    2743:	48 89 c7             	mov    %rax,%rdi
    2746:	e8 b5 fb ff ff       	call   2300 <_ZStlsISt11char_traitsIcEERSt13basic_ostreamIcT_ES5_PKc@plt>
    274b:	48 89 c2             	mov    %rax,%rdx
    274e:	48 8b 45 c8          	mov    -0x38(%rbp),%rax
    2752:	48 89 c6             	mov    %rax,%rsi
    2755:	48 89 d7             	mov    %rdx,%rdi
    2758:	e8 13 fb ff ff       	call   2270 <_ZNSolsEm@plt>
    275d:	48 89 c2             	mov    %rax,%rdx
    2760:	48 8d 05 56 49 00 00 	lea    0x4956(%rip),%rax        # 70bd <_ZN3tbb6detail2d1L17finalize_throwingE+0xd>
    2767:	48 89 c6             	mov    %rax,%rsi
    276a:	48 89 d7             	mov    %rdx,%rdi
    276d:	e8 8e fb ff ff       	call   2300 <_ZStlsISt11char_traitsIcEERSt13basic_ostreamIcT_ES5_PKc@plt>
    2772:	48 89 c3             	mov    %rax,%rbx
    2775:	48 8b 55 c8          	mov    -0x38(%rbp),%rdx
    2779:	48 8d 45 d0          	lea    -0x30(%rbp),%rax
    277d:	48 89 d6             	mov    %rdx,%rsi
    2780:	48 89 c7             	mov    %rax,%rdi
    2783:	e8 20 28 00 00       	call   4fa8 <_ZNSt6vectorIiSaIiEEixEm>
    2788:	8b 00                	mov    (%rax),%eax
    278a:	89 c6                	mov    %eax,%esi
    278c:	48 89 df             	mov    %rbx,%rdi
    278f:	e8 4c fc ff ff       	call   23e0 <_ZNSolsEi@plt>
    2794:	48 8b 15 35 98 00 00 	mov    0x9835(%rip),%rdx        # bfd0 <_ZSt4endlIcSt11char_traitsIcEERSt13basic_ostreamIT_T0_ES6_@GLIBCXX_3.4>
    279b:	48 89 d6             	mov    %rdx,%rsi
    279e:	48 89 c7             	mov    %rax,%rdi
    27a1:	e8 8a fb ff ff       	call   2330 <_ZNSolsEPFRSoS_E@plt>
    27a6:	48 83 45 c8 01       	addq   $0x1,-0x38(%rbp)
    27ab:	48 83 7d c8 09       	cmpq   $0x9,-0x38(%rbp)
    27b0:	76 80                	jbe    2732 <main+0xa0>
    27b2:	bb 00 00 00 00       	mov    $0x0,%ebx
    27b7:	48 8d 45 d0          	lea    -0x30(%rbp),%rax
    27bb:	48 89 c7             	mov    %rax,%rdi
    27be:	e8 23 23 00 00       	call   4ae6 <_ZNSt6vectorIiSaIiEED1Ev>
    27c3:	89 d8                	mov    %ebx,%eax
    27c5:	48 8b 55 e8          	mov    -0x18(%rbp),%rdx
    27c9:	64 48 2b 14 25 28 00 	sub    %fs:0x28,%rdx
    27d0:	00 00 
    27d2:	74 43                	je     2817 <main+0x185>
    27d4:	eb 3c                	jmp    2812 <main+0x180>
    27d6:	f3 0f 1e fa          	endbr64 
    27da:	48 89 c3             	mov    %rax,%rbx
    27dd:	48 8d 45 bf          	lea    -0x41(%rbp),%rax
    27e1:	48 89 c7             	mov    %rax,%rdi
    27e4:	e8 5f 22 00 00       	call   4a48 <_ZNSaIiED1Ev>
    27e9:	48 89 d8             	mov    %rbx,%rax
    27ec:	48 89 c7             	mov    %rax,%rdi
    27ef:	e8 fc fb ff ff       	call   23f0 <_Unwind_Resume@plt>
    27f4:	f3 0f 1e fa          	endbr64 
    27f8:	48 89 c3             	mov    %rax,%rbx
    27fb:	48 8d 45 d0          	lea    -0x30(%rbp),%rax
    27ff:	48 89 c7             	mov    %rax,%rdi
    2802:	e8 df 22 00 00       	call   4ae6 <_ZNSt6vectorIiSaIiEED1Ev>
    2807:	48 89 d8             	mov    %rbx,%rax
    280a:	48 89 c7             	mov    %rax,%rdi
    280d:	e8 de fb ff ff       	call   23f0 <_Unwind_Resume@plt>
    2812:	e8 39 fb ff ff       	call   2350 <__stack_chk_fail@plt>
    2817:	48 8b 5d f8          	mov    -0x8(%rbp),%rbx
    281b:	c9                   	leave  
    281c:	c3                   	ret    

000000000000281d <_ZN3tbb6detail2d112parallel_forINS1_13blocked_rangeImEEZ15square_elementsRSt6vectorIiSaIiEEEUlRKS4_E_EEvRKT_RKT0_>:
    281d:	f3 0f 1e fa          	endbr64 
    2821:	55                   	push   %rbp
    2822:	48 89 e5             	mov    %rsp,%rbp
    2825:	48 83 ec 20          	sub    $0x20,%rsp
    2829:	48 89 7d e8          	mov    %rdi,-0x18(%rbp)
    282d:	48 89 75 e0          	mov    %rsi,-0x20(%rbp)
    2831:	64 48 8b 04 25 28 00 	mov    %fs:0x28,%rax
    2838:	00 00 
    283a:	48 89 45 f8          	mov    %rax,-0x8(%rbp)
    283e:	31 c0                	xor    %eax,%eax
    2840:	48 8d 45 f7          	lea    -0x9(%rbp),%rax
    2844:	48 89 c7             	mov    %rax,%rdi
    2847:	e8 70 21 00 00       	call   49bc <_ZN3tbb6detail2d116auto_partitionerC1Ev>
    284c:	48 8d 55 f7          	lea    -0x9(%rbp),%rdx
    2850:	48 8b 4d e0          	mov    -0x20(%rbp),%rcx
    2854:	48 8b 45 e8          	mov    -0x18(%rbp),%rax
    2858:	48 89 ce             	mov    %rcx,%rsi
    285b:	48 89 c7             	mov    %rax,%rdi
    285e:	e8 17 00 00 00       	call   287a <_ZN3tbb6detail2d19start_forINS1_13blocked_rangeImEEZ15square_elementsRSt6vectorIiSaIiEEEUlRKS4_E_KNS1_16auto_partitionerEE3runESA_RKSB_RSD_>
    2863:	90                   	nop
    2864:	48 8b 45 f8          	mov    -0x8(%rbp),%rax
    2868:	64 48 2b 04 25 28 00 	sub    %fs:0x28,%rax
    286f:	00 00 
    2871:	74 05                	je     2878 <_ZN3tbb6detail2d112parallel_forINS1_13blocked_rangeImEEZ15square_elementsRSt6vectorIiSaIiEEEUlRKS4_E_EEvRKT_RKT0_+0x5b>
    2873:	e8 d8 fa ff ff       	call   2350 <__stack_chk_fail@plt>
    2878:	c9                   	leave  
    2879:	c3                   	ret    

000000000000287a <_ZN3tbb6detail2d19start_forINS1_13blocked_rangeImEEZ15square_elementsRSt6vectorIiSaIiEEEUlRKS4_E_KNS1_16auto_partitionerEE3runESA_RKSB_RSD_>:
    287a:	55                   	push   %rbp
    287b:	48 89 e5             	mov    %rsp,%rbp
    287e:	53                   	push   %rbx
    287f:	48 81 ec b8 00 00 00 	sub    $0xb8,%rsp
    2886:	48 89 bd 58 ff ff ff 	mov    %rdi,-0xa8(%rbp)
    288d:	48 89 b5 50 ff ff ff 	mov    %rsi,-0xb0(%rbp)
    2894:	48 89 95 48 ff ff ff 	mov    %rdx,-0xb8(%rbp)
    289b:	64 48 8b 04 25 28 00 	mov    %fs:0x28,%rax
    28a2:	00 00 
    28a4:	48 89 45 e8          	mov    %rax,-0x18(%rbp)
    28a8:	31 c0                	xor    %eax,%eax
    28aa:	48 8d 85 60 ff ff ff 	lea    -0xa0(%rbp),%rax
    28b1:	be 01 00 00 00       	mov    $0x1,%esi
    28b6:	48 89 c7             	mov    %rax,%rdi
    28b9:	e8 8c 1a 00 00       	call   434a <_ZN3tbb6detail2d118task_group_contextC1ENS0_2d021string_resource_indexE>
    28be:	48 8d 8d 60 ff ff ff 	lea    -0xa0(%rbp),%rcx
    28c5:	48 8b 95 48 ff ff ff 	mov    -0xb8(%rbp),%rdx
    28cc:	48 8b b5 50 ff ff ff 	mov    -0xb0(%rbp),%rsi
    28d3:	48 8b 85 58 ff ff ff 	mov    -0xa8(%rbp),%rax
    28da:	48 89 c7             	mov    %rax,%rdi
    28dd:	e8 4c 00 00 00       	call   292e <_ZN3tbb6detail2d19start_forINS1_13blocked_rangeImEEZ15square_elementsRSt6vectorIiSaIiEEEUlRKS4_E_KNS1_16auto_partitionerEE3runESA_RKSB_RSD_RNS1_18task_group_contextE>
    28e2:	48 8d 85 60 ff ff ff 	lea    -0xa0(%rbp),%rax
    28e9:	48 89 c7             	mov    %rax,%rdi
    28ec:	e8 93 1a 00 00       	call   4384 <_ZN3tbb6detail2d118task_group_contextD1Ev>
    28f1:	48 8b 45 e8          	mov    -0x18(%rbp),%rax
    28f5:	64 48 2b 04 25 28 00 	sub    %fs:0x28,%rax
    28fc:	00 00 
    28fe:	74 28                	je     2928 <_ZN3tbb6detail2d19start_forINS1_13blocked_rangeImEEZ15square_elementsRSt6vectorIiSaIiEEEUlRKS4_E_KNS1_16auto_partitionerEE3runESA_RKSB_RSD_+0xae>
    2900:	eb 21                	jmp    2923 <_ZN3tbb6detail2d19start_forINS1_13blocked_rangeImEEZ15square_elementsRSt6vectorIiSaIiEEEUlRKS4_E_KNS1_16auto_partitionerEE3runESA_RKSB_RSD_+0xa9>
    2902:	f3 0f 1e fa          	endbr64 
    2906:	48 89 c3             	mov    %rax,%rbx
    2909:	48 8d 85 60 ff ff ff 	lea    -0xa0(%rbp),%rax
    2910:	48 89 c7             	mov    %rax,%rdi
    2913:	e8 6c 1a 00 00       	call   4384 <_ZN3tbb6detail2d118task_group_contextD1Ev>
    2918:	48 89 d8             	mov    %rbx,%rax
    291b:	48 89 c7             	mov    %rax,%rdi
    291e:	e8 cd fa ff ff       	call   23f0 <_Unwind_Resume@plt>
    2923:	e8 28 fa ff ff       	call   2350 <__stack_chk_fail@plt>
    2928:	48 8b 5d f8          	mov    -0x8(%rbp),%rbx
    292c:	c9                   	leave  
    292d:	c3                   	ret    

000000000000292e <_ZN3tbb6detail2d19start_forINS1_13blocked_rangeImEEZ15square_elementsRSt6vectorIiSaIiEEEUlRKS4_E_KNS1_16auto_partitionerEE3runESA_RKSB_RSD_RNS1_18task_group_contextE>:
    292e:	55                   	push   %rbp
    292f:	48 89 e5             	mov    %rsp,%rbp
    2932:	53                   	push   %rbx
    2933:	48 83 ec 68          	sub    $0x68,%rsp
    2937:	48 89 7d a8          	mov    %rdi,-0x58(%rbp)
    293b:	48 89 75 a0          	mov    %rsi,-0x60(%rbp)
    293f:	48 89 55 98          	mov    %rdx,-0x68(%rbp)
    2943:	48 89 4d 90          	mov    %rcx,-0x70(%rbp)
    2947:	64 48 8b 04 25 28 00 	mov    %fs:0x28,%rax
    294e:	00 00 
    2950:	48 89 45 e8          	mov    %rax,-0x18(%rbp)
    2954:	31 c0                	xor    %eax,%eax
    2956:	48 8b 45 a8          	mov    -0x58(%rbp),%rax
    295a:	48 89 c7             	mov    %rax,%rdi
    295d:	e8 8e 31 00 00       	call   5af0 <_ZNK3tbb6detail2d113blocked_rangeImE5emptyEv>
    2962:	83 f0 01             	xor    $0x1,%eax
    2965:	84 c0                	test   %al,%al
    2967:	0f 84 91 00 00 00    	je     29fe <_ZN3tbb6detail2d19start_forINS1_13blocked_rangeImEEZ15square_elementsRSt6vectorIiSaIiEEEUlRKS4_E_KNS1_16auto_partitionerEE3runESA_RKSB_RSD_RNS1_18task_group_contextE+0xd0>
    296d:	48 c7 45 b0 00 00 00 	movq   $0x0,-0x50(%rbp)
    2974:	00 
    2975:	48 8d 7d b0          	lea    -0x50(%rbp),%rdi
    2979:	48 8b 4d 98          	mov    -0x68(%rbp),%rcx
    297d:	48 8b 55 a0          	mov    -0x60(%rbp),%rdx
    2981:	48 8b 75 a8          	mov    -0x58(%rbp),%rsi
    2985:	48 8d 45 b0          	lea    -0x50(%rbp),%rax
    2989:	49 89 f8             	mov    %rdi,%r8
    298c:	48 89 c7             	mov    %rax,%rdi
    298f:	e8 86 00 00 00       	call   2a1a <_ZN3tbb6detail2d122small_object_allocator10new_objectINS1_9start_forINS1_13blocked_rangeImEEZ15square_elementsRSt6vectorIiSaIiEEEUlRKS6_E_KNS1_16auto_partitionerEEEJSC_RKSD_RSF_RS2_EEEPT_DpOT0_>
    2994:	48 89 45 b8          	mov    %rax,-0x48(%rbp)
    2998:	48 8d 45 c0          	lea    -0x40(%rbp),%rax
    299c:	48 89 c7             	mov    %rax,%rdi
    299f:	e8 7c 1e 00 00       	call   4820 <_ZN3tbb6detail2d19wait_nodeC1Ev>
    29a4:	48 8b 45 b8          	mov    -0x48(%rbp),%rax
    29a8:	48 8d 55 c0          	lea    -0x40(%rbp),%rdx
    29ac:	48 89 50 60          	mov    %rdx,0x60(%rax)
    29b0:	48 8b 45 b8          	mov    -0x48(%rbp),%rax
    29b4:	48 8b 55 90          	mov    -0x70(%rbp),%rdx
    29b8:	48 8d 4d c0          	lea    -0x40(%rbp),%rcx
    29bc:	48 8d 79 10          	lea    0x10(%rcx),%rdi
    29c0:	48 8b 75 90          	mov    -0x70(%rbp),%rsi
    29c4:	48 89 d1             	mov    %rdx,%rcx
    29c7:	48 89 fa             	mov    %rdi,%rdx
    29ca:	48 89 c7             	mov    %rax,%rdi
    29cd:	e8 6e 14 00 00       	call   3e40 <_ZN3tbb6detail2d116execute_and_waitERNS1_4taskERNS1_18task_group_contextERNS1_12wait_contextES5_>
    29d2:	48 8d 45 c0          	lea    -0x40(%rbp),%rax
    29d6:	48 89 c7             	mov    %rax,%rdi
    29d9:	e8 50 2f 00 00       	call   592e <_ZN3tbb6detail2d19wait_nodeD1Ev>
    29de:	eb 1e                	jmp    29fe <_ZN3tbb6detail2d19start_forINS1_13blocked_rangeImEEZ15square_elementsRSt6vectorIiSaIiEEEUlRKS4_E_KNS1_16auto_partitionerEE3runESA_RKSB_RSD_RNS1_18task_group_contextE+0xd0>
    29e0:	f3 0f 1e fa          	endbr64 
    29e4:	48 89 c3             	mov    %rax,%rbx
    29e7:	48 8d 45 c0          	lea    -0x40(%rbp),%rax
    29eb:	48 89 c7             	mov    %rax,%rdi
    29ee:	e8 3b 2f 00 00       	call   592e <_ZN3tbb6detail2d19wait_nodeD1Ev>
    29f3:	48 89 d8             	mov    %rbx,%rax
    29f6:	48 89 c7             	mov    %rax,%rdi
    29f9:	e8 f2 f9 ff ff       	call   23f0 <_Unwind_Resume@plt>
    29fe:	90                   	nop
    29ff:	48 8b 45 e8          	mov    -0x18(%rbp),%rax
    2a03:	64 48 2b 04 25 28 00 	sub    %fs:0x28,%rax
    2a0a:	00 00 
    2a0c:	74 05                	je     2a13 <_ZN3tbb6detail2d19start_forINS1_13blocked_rangeImEEZ15square_elementsRSt6vectorIiSaIiEEEUlRKS4_E_KNS1_16auto_partitionerEE3runESA_RKSB_RSD_RNS1_18task_group_contextE+0xe5>
    2a0e:	e8 3d f9 ff ff       	call   2350 <__stack_chk_fail@plt>
    2a13:	48 8b 5d f8          	mov    -0x8(%rbp),%rbx
    2a17:	c9                   	leave  
    2a18:	c3                   	ret    
    2a19:	90                   	nop

0000000000002a1a <_ZN3tbb6detail2d122small_object_allocator10new_objectINS1_9start_forINS1_13blocked_rangeImEEZ15square_elementsRSt6vectorIiSaIiEEEUlRKS6_E_KNS1_16auto_partitionerEEEJSC_RKSD_RSF_RS2_EEEPT_DpOT0_>:
    2a1a:	55                   	push   %rbp
    2a1b:	48 89 e5             	mov    %rsp,%rbp
    2a1e:	41 57                	push   %r15
    2a20:	41 56                	push   %r14
    2a22:	41 55                	push   %r13
    2a24:	41 54                	push   %r12
    2a26:	53                   	push   %rbx
    2a27:	48 83 ec 48          	sub    $0x48,%rsp
    2a2b:	48 89 7d b8          	mov    %rdi,-0x48(%rbp)
    2a2f:	48 89 75 b0          	mov    %rsi,-0x50(%rbp)
    2a33:	48 89 55 a8          	mov    %rdx,-0x58(%rbp)
    2a37:	48 89 4d a0          	mov    %rcx,-0x60(%rbp)
    2a3b:	4c 89 45 98          	mov    %r8,-0x68(%rbp)
    2a3f:	48 8b 45 b8          	mov    -0x48(%rbp),%rax
    2a43:	be 80 00 00 00       	mov    $0x80,%esi
    2a48:	48 89 c7             	mov    %rax,%rdi
    2a4b:	e8 00 f8 ff ff       	call   2250 <_ZN3tbb6detail2r18allocateERPNS0_2d117small_object_poolEm@plt>
    2a50:	48 89 45 c0          	mov    %rax,-0x40(%rbp)
    2a54:	48 8b 45 b0          	mov    -0x50(%rbp),%rax
    2a58:	48 89 c7             	mov    %rax,%rdi
    2a5b:	e8 aa 31 00 00       	call   5c0a <_ZSt7forwardIRKN3tbb6detail2d113blocked_rangeImEEEOT_RNSt16remove_referenceIS7_E4typeE>
    2a60:	49 89 c5             	mov    %rax,%r13
    2a63:	48 8b 45 a8          	mov    -0x58(%rbp),%rax
    2a67:	48 89 c7             	mov    %rax,%rdi
    2a6a:	e8 81 00 00 00       	call   2af0 <_ZSt7forwardIRKZ15square_elementsRSt6vectorIiSaIiEEEUlRKN3tbb6detail2d113blocked_rangeImEEE_EOT_RNSt16remove_referenceISE_E4typeE>
    2a6f:	49 89 c6             	mov    %rax,%r14
    2a72:	48 8b 45 a0          	mov    -0x60(%rbp),%rax
    2a76:	48 89 c7             	mov    %rax,%rdi
    2a79:	e8 9e 31 00 00       	call   5c1c <_ZSt7forwardIRKN3tbb6detail2d116auto_partitionerEEOT_RNSt16remove_referenceIS6_E4typeE>
    2a7e:	49 89 c7             	mov    %rax,%r15
    2a81:	48 8b 45 98          	mov    -0x68(%rbp),%rax
    2a85:	48 89 c7             	mov    %rax,%rdi
    2a88:	e8 d8 29 00 00       	call   5465 <_ZSt7forwardIRN3tbb6detail2d122small_object_allocatorEEOT_RNSt16remove_referenceIS5_E4typeE>
    2a8d:	48 89 45 90          	mov    %rax,-0x70(%rbp)
    2a91:	4c 8b 65 c0          	mov    -0x40(%rbp),%r12
    2a95:	4c 89 e6             	mov    %r12,%rsi
    2a98:	bf 80 00 00 00       	mov    $0x80,%edi
    2a9d:	e8 5d 0e 00 00       	call   38ff <_ZnwmPv>
    2aa2:	48 89 c3             	mov    %rax,%rbx
    2aa5:	4c 8b 45 90          	mov    -0x70(%rbp),%r8
    2aa9:	4c 89 f9             	mov    %r15,%rcx
    2aac:	4c 89 f2             	mov    %r14,%rdx
    2aaf:	4c 89 ee             	mov    %r13,%rsi
    2ab2:	48 89 df             	mov    %rbx,%rdi
    2ab5:	e8 44 00 00 00       	call   2afe <_ZN3tbb6detail2d19start_forINS1_13blocked_rangeImEEZ15square_elementsRSt6vectorIiSaIiEEEUlRKS4_E_KNS1_16auto_partitionerEEC1ESA_RKSB_RSD_RNS1_22small_object_allocatorE>
    2aba:	48 89 5d c8          	mov    %rbx,-0x38(%rbp)
    2abe:	48 8b 45 c8          	mov    -0x38(%rbp),%rax
    2ac2:	eb 1d                	jmp    2ae1 <_ZN3tbb6detail2d122small_object_allocator10new_objectINS1_9start_forINS1_13blocked_rangeImEEZ15square_elementsRSt6vectorIiSaIiEEEUlRKS6_E_KNS1_16auto_partitionerEEEJSC_RKSD_RSF_RS2_EEEPT_DpOT0_+0xc7>
    2ac4:	f3 0f 1e fa          	endbr64 
    2ac8:	49 89 c5             	mov    %rax,%r13
    2acb:	4c 89 e6             	mov    %r12,%rsi
    2ace:	48 89 df             	mov    %rbx,%rdi
    2ad1:	e8 3f 0e 00 00       	call   3915 <_ZdlPvS_>
    2ad6:	4c 89 e8             	mov    %r13,%rax
    2ad9:	48 89 c7             	mov    %rax,%rdi
    2adc:	e8 0f f9 ff ff       	call   23f0 <_Unwind_Resume@plt>
    2ae1:	48 83 c4 48          	add    $0x48,%rsp
    2ae5:	5b                   	pop    %rbx
    2ae6:	41 5c                	pop    %r12
    2ae8:	41 5d                	pop    %r13
    2aea:	41 5e                	pop    %r14
    2aec:	41 5f                	pop    %r15
    2aee:	5d                   	pop    %rbp
    2aef:	c3                   	ret    

0000000000002af0 <_ZSt7forwardIRKZ15square_elementsRSt6vectorIiSaIiEEEUlRKN3tbb6detail2d113blocked_rangeImEEE_EOT_RNSt16remove_referenceISE_E4typeE>:
    2af0:	55                   	push   %rbp
    2af1:	48 89 e5             	mov    %rsp,%rbp
    2af4:	48 89 7d f8          	mov    %rdi,-0x8(%rbp)
    2af8:	48 8b 45 f8          	mov    -0x8(%rbp),%rax
    2afc:	5d                   	pop    %rbp
    2afd:	c3                   	ret    

0000000000002afe <_ZN3tbb6detail2d19start_forINS1_13blocked_rangeImEEZ15square_elementsRSt6vectorIiSaIiEEEUlRKS4_E_KNS1_16auto_partitionerEEC1ESA_RKSB_RSD_RNS1_22small_object_allocatorE>:
    2afe:	55                   	push   %rbp
    2aff:	48 89 e5             	mov    %rsp,%rbp
    2b02:	53                   	push   %rbx
    2b03:	48 83 ec 38          	sub    $0x38,%rsp
    2b07:	48 89 7d e8          	mov    %rdi,-0x18(%rbp)
    2b0b:	48 89 75 e0          	mov    %rsi,-0x20(%rbp)
    2b0f:	48 89 55 d8          	mov    %rdx,-0x28(%rbp)
    2b13:	48 89 4d d0          	mov    %rcx,-0x30(%rbp)
    2b17:	4c 89 45 c8          	mov    %r8,-0x38(%rbp)
    2b1b:	48 8b 45 e8          	mov    -0x18(%rbp),%rax
    2b1f:	48 89 c7             	mov    %rax,%rdi
    2b22:	e8 d9 13 00 00       	call   3f00 <_ZN3tbb6detail2d14taskC1Ev>
    2b27:	48 8d 15 32 8f 00 00 	lea    0x8f32(%rip),%rdx        # ba60 <_ZTVN3tbb6detail2d19start_forINS1_13blocked_rangeImEEZ15square_elementsRSt6vectorIiSaIiEEEUlRKS4_E_KNS1_16auto_partitionerEEE+0x10>
    2b2e:	48 8b 45 e8          	mov    -0x18(%rbp),%rax
    2b32:	48 89 10             	mov    %rdx,(%rax)
    2b35:	48 8b 4d e8          	mov    -0x18(%rbp),%rcx
    2b39:	48 8b 75 e0          	mov    -0x20(%rbp),%rsi
    2b3d:	48 8b 06             	mov    (%rsi),%rax
    2b40:	48 8b 56 08          	mov    0x8(%rsi),%rdx
    2b44:	48 89 41 40          	mov    %rax,0x40(%rcx)
    2b48:	48 89 51 48          	mov    %rdx,0x48(%rcx)
    2b4c:	48 8b 46 10          	mov    0x10(%rsi),%rax
    2b50:	48 89 41 50          	mov    %rax,0x50(%rcx)
    2b54:	48 8b 45 e8          	mov    -0x18(%rbp),%rax
    2b58:	48 8d 50 58          	lea    0x58(%rax),%rdx
    2b5c:	48 8b 45 d8          	mov    -0x28(%rbp),%rax
    2b60:	48 8b 00             	mov    (%rax),%rax
    2b63:	48 89 02             	mov    %rax,(%rdx)
    2b66:	48 8b 45 e8          	mov    -0x18(%rbp),%rax
    2b6a:	48 c7 40 60 00 00 00 	movq   $0x0,0x60(%rax)
    2b71:	00 
    2b72:	48 8b 45 e8          	mov    -0x18(%rbp),%rax
    2b76:	48 8d 50 68          	lea    0x68(%rax),%rdx
    2b7a:	48 8b 45 d0          	mov    -0x30(%rbp),%rax
    2b7e:	48 89 c6             	mov    %rax,%rsi
    2b81:	48 89 d7             	mov    %rdx,%rdi
    2b84:	e8 41 1d 00 00       	call   48ca <_ZN3tbb6detail2d119auto_partition_typeC1ERKNS1_16auto_partitionerE>
    2b89:	48 8b 45 e8          	mov    -0x18(%rbp),%rax
    2b8d:	48 8b 55 c8          	mov    -0x38(%rbp),%rdx
    2b91:	48 8b 12             	mov    (%rdx),%rdx
    2b94:	48 89 50 78          	mov    %rdx,0x78(%rax)
    2b98:	eb 1e                	jmp    2bb8 <_ZN3tbb6detail2d19start_forINS1_13blocked_rangeImEEZ15square_elementsRSt6vectorIiSaIiEEEUlRKS4_E_KNS1_16auto_partitionerEEC1ESA_RKSB_RSD_RNS1_22small_object_allocatorE+0xba>
    2b9a:	f3 0f 1e fa          	endbr64 
    2b9e:	48 89 c3             	mov    %rax,%rbx
    2ba1:	48 8b 45 e8          	mov    -0x18(%rbp),%rax
    2ba5:	48 89 c7             	mov    %rax,%rdi
    2ba8:	e8 b9 13 00 00       	call   3f66 <_ZN3tbb6detail2d14taskD1Ev>
    2bad:	48 89 d8             	mov    %rbx,%rax
    2bb0:	48 89 c7             	mov    %rax,%rdi
    2bb3:	e8 38 f8 ff ff       	call   23f0 <_Unwind_Resume@plt>
    2bb8:	48 8b 5d f8          	mov    -0x8(%rbp),%rbx
    2bbc:	c9                   	leave  
    2bbd:	c3                   	ret    

0000000000002bbe <_ZN3tbb6detail2d19start_forINS1_13blocked_rangeImEEZ15square_elementsRSt6vectorIiSaIiEEEUlRKS4_E_KNS1_16auto_partitionerEED1Ev>:
    2bbe:	f3 0f 1e fa          	endbr64 
    2bc2:	55                   	push   %rbp
    2bc3:	48 89 e5             	mov    %rsp,%rbp
    2bc6:	48 83 ec 10          	sub    $0x10,%rsp
    2bca:	48 89 7d f8          	mov    %rdi,-0x8(%rbp)
    2bce:	48 8d 15 8b 8e 00 00 	lea    0x8e8b(%rip),%rdx        # ba60 <_ZTVN3tbb6detail2d19start_forINS1_13blocked_rangeImEEZ15square_elementsRSt6vectorIiSaIiEEEUlRKS4_E_KNS1_16auto_partitionerEEE+0x10>
    2bd5:	48 8b 45 f8          	mov    -0x8(%rbp),%rax
    2bd9:	48 89 10             	mov    %rdx,(%rax)
    2bdc:	48 8b 45 f8          	mov    -0x8(%rbp),%rax
    2be0:	48 89 c7             	mov    %rax,%rdi
    2be3:	e8 7e 13 00 00       	call   3f66 <_ZN3tbb6detail2d14taskD1Ev>
    2be8:	90                   	nop
    2be9:	c9                   	leave  
    2bea:	c3                   	ret    
    2beb:	90                   	nop

0000000000002bec <_ZN3tbb6detail2d19start_forINS1_13blocked_rangeImEEZ15square_elementsRSt6vectorIiSaIiEEEUlRKS4_E_KNS1_16auto_partitionerEED0Ev>:
    2bec:	f3 0f 1e fa          	endbr64 
    2bf0:	55                   	push   %rbp
    2bf1:	48 89 e5             	mov    %rsp,%rbp
    2bf4:	48 83 ec 10          	sub    $0x10,%rsp
    2bf8:	48 89 7d f8          	mov    %rdi,-0x8(%rbp)
    2bfc:	48 8b 45 f8          	mov    -0x8(%rbp),%rax
    2c00:	48 89 c7             	mov    %rax,%rdi
    2c03:	e8 b6 ff ff ff       	call   2bbe <_ZN3tbb6detail2d19start_forINS1_13blocked_rangeImEEZ15square_elementsRSt6vectorIiSaIiEEEUlRKS4_E_KNS1_16auto_partitionerEED1Ev>
    2c08:	48 8b 45 f8          	mov    -0x8(%rbp),%rax
    2c0c:	ba 40 00 00 00       	mov    $0x40,%edx
    2c11:	be 80 00 00 00       	mov    $0x80,%esi
    2c16:	48 89 c7             	mov    %rax,%rdi
    2c19:	e8 42 f6 ff ff       	call   2260 <_ZdlPvmSt11align_val_t@plt>
    2c1e:	c9                   	leave  
    2c1f:	c3                   	ret    

0000000000002c20 <_Z41__static_initialization_and_destruction_0ii>:
    2c20:	f3 0f 1e fa          	endbr64 
    2c24:	55                   	push   %rbp
    2c25:	48 89 e5             	mov    %rsp,%rbp
    2c28:	48 83 ec 10          	sub    $0x10,%rsp
    2c2c:	89 7d fc             	mov    %edi,-0x4(%rbp)
    2c2f:	89 75 f8             	mov    %esi,-0x8(%rbp)
    2c32:	83 7d fc 01          	cmpl   $0x1,-0x4(%rbp)
    2c36:	75 3b                	jne    2c73 <_Z41__static_initialization_and_destruction_0ii+0x53>
    2c38:	81 7d f8 ff ff 00 00 	cmpl   $0xffff,-0x8(%rbp)
    2c3f:	75 32                	jne    2c73 <_Z41__static_initialization_and_destruction_0ii+0x53>
    2c41:	48 8d 05 09 95 00 00 	lea    0x9509(%rip),%rax        # c151 <_ZStL8__ioinit>
    2c48:	48 89 c7             	mov    %rax,%rdi
    2c4b:	e8 60 f7 ff ff       	call   23b0 <_ZNSt8ios_base4InitC1Ev@plt>
    2c50:	48 8d 05 b1 93 00 00 	lea    0x93b1(%rip),%rax        # c008 <__dso_handle>
    2c57:	48 89 c2             	mov    %rax,%rdx
    2c5a:	48 8d 05 f0 94 00 00 	lea    0x94f0(%rip),%rax        # c151 <_ZStL8__ioinit>
    2c61:	48 89 c6             	mov    %rax,%rsi
    2c64:	48 8b 05 8d 93 00 00 	mov    0x938d(%rip),%rax        # bff8 <_ZNSt8ios_base4InitD1Ev@GLIBCXX_3.4>
    2c6b:	48 89 c7             	mov    %rax,%rdi
    2c6e:	e8 6d f6 ff ff       	call   22e0 <__cxa_atexit@plt>
    2c73:	90                   	nop
    2c74:	c9                   	leave  
    2c75:	c3                   	ret    

0000000000002c76 <_ZN3tbb6detail2d19start_forINS1_13blocked_rangeImEEZ15square_elementsRSt6vectorIiSaIiEEEUlRKS4_E_KNS1_16auto_partitionerEE7executeERNS1_14execution_dataE>:
    2c76:	f3 0f 1e fa          	endbr64 
    2c7a:	55                   	push   %rbp
    2c7b:	48 89 e5             	mov    %rsp,%rbp
    2c7e:	53                   	push   %rbx
    2c7f:	48 83 ec 18          	sub    $0x18,%rsp
    2c83:	48 89 7d e8          	mov    %rdi,-0x18(%rbp)
    2c87:	48 89 75 e0          	mov    %rsi,-0x20(%rbp)
    2c8b:	48 8b 45 e0          	mov    -0x20(%rbp),%rax
    2c8f:	48 89 c7             	mov    %rax,%rdi
    2c92:	e8 1a 11 00 00       	call   3db1 <_ZN3tbb6detail2d116is_same_affinityERKNS1_14execution_dataE>
    2c97:	83 f0 01             	xor    $0x1,%eax
    2c9a:	84 c0                	test   %al,%al
    2c9c:	74 21                	je     2cbf <_ZN3tbb6detail2d19start_forINS1_13blocked_rangeImEEZ15square_elementsRSt6vectorIiSaIiEEEUlRKS4_E_KNS1_16auto_partitionerEE7executeERNS1_14execution_dataE+0x49>
    2c9e:	48 8b 45 e8          	mov    -0x18(%rbp),%rax
    2ca2:	48 8d 58 68          	lea    0x68(%rax),%rbx
    2ca6:	48 8b 45 e0          	mov    -0x20(%rbp),%rax
    2caa:	48 89 c7             	mov    %rax,%rdi
    2cad:	e8 e1 10 00 00       	call   3d93 <_ZN3tbb6detail2d114execution_slotERKNS1_14execution_dataE>
    2cb2:	0f b7 c0             	movzwl %ax,%eax
    2cb5:	89 c6                	mov    %eax,%esi
    2cb7:	48 89 df             	mov    %rbx,%rdi
    2cba:	e8 63 31 00 00       	call   5e22 <_ZN3tbb6detail2d119partition_type_baseINS1_19auto_partition_typeEE13note_affinityEt>
    2cbf:	48 8b 45 e8          	mov    -0x18(%rbp),%rax
    2cc3:	48 8d 48 68          	lea    0x68(%rax),%rcx
    2cc7:	48 8b 55 e0          	mov    -0x20(%rbp),%rdx
    2ccb:	48 8b 45 e8          	mov    -0x18(%rbp),%rax
    2ccf:	48 89 c6             	mov    %rax,%rsi
    2cd2:	48 89 cf             	mov    %rcx,%rdi
    2cd5:	e8 72 00 00 00       	call   2d4c <_ZN3tbb6detail2d122dynamic_grainsize_modeINS1_13adaptive_modeINS1_19auto_partition_typeEEEE18check_being_stolenINS1_9start_forINS1_13blocked_rangeImEEZ15square_elementsRSt6vectorIiSaIiEEEUlRKSA_E_KNS1_16auto_partitionerEEEEEbRT_RKNS1_14execution_dataE>
    2cda:	48 8b 45 e8          	mov    -0x18(%rbp),%rax
    2cde:	48 8d 78 68          	lea    0x68(%rax),%rdi
    2ce2:	48 8b 45 e8          	mov    -0x18(%rbp),%rax
    2ce6:	48 8d 70 40          	lea    0x40(%rax),%rsi
    2cea:	48 8b 55 e0          	mov    -0x20(%rbp),%rdx
    2cee:	48 8b 45 e8          	mov    -0x18(%rbp),%rax
    2cf2:	48 89 d1             	mov    %rdx,%rcx
    2cf5:	48 89 f2             	mov    %rsi,%rdx
    2cf8:	48 89 c6             	mov    %rax,%rsi
    2cfb:	e8 14 01 00 00       	call   2e14 <_ZN3tbb6detail2d119partition_type_baseINS1_19auto_partition_typeEE7executeINS1_9start_forINS1_13blocked_rangeImEEZ15square_elementsRSt6vectorIiSaIiEEEUlRKS8_E_KNS1_16auto_partitionerEEES8_EEvRT_RT0_RNS1_14execution_dataE>
    2d00:	48 8b 55 e0          	mov    -0x20(%rbp),%rdx
    2d04:	48 8b 45 e8          	mov    -0x18(%rbp),%rax
    2d08:	48 89 d6             	mov    %rdx,%rsi
    2d0b:	48 89 c7             	mov    %rax,%rdi
    2d0e:	e8 ed 01 00 00       	call   2f00 <_ZN3tbb6detail2d19start_forINS1_13blocked_rangeImEEZ15square_elementsRSt6vectorIiSaIiEEEUlRKS4_E_KNS1_16auto_partitionerEE8finalizeERKNS1_14execution_dataE>
    2d13:	b8 00 00 00 00       	mov    $0x0,%eax
    2d18:	48 8b 5d f8          	mov    -0x8(%rbp),%rbx
    2d1c:	c9                   	leave  
    2d1d:	c3                   	ret    

0000000000002d1e <_ZN3tbb6detail2d19start_forINS1_13blocked_rangeImEEZ15square_elementsRSt6vectorIiSaIiEEEUlRKS4_E_KNS1_16auto_partitionerEE6cancelERNS1_14execution_dataE>:
    2d1e:	f3 0f 1e fa          	endbr64 
    2d22:	55                   	push   %rbp
    2d23:	48 89 e5             	mov    %rsp,%rbp
    2d26:	48 83 ec 10          	sub    $0x10,%rsp
    2d2a:	48 89 7d f8          	mov    %rdi,-0x8(%rbp)
    2d2e:	48 89 75 f0          	mov    %rsi,-0x10(%rbp)
    2d32:	48 8b 55 f0          	mov    -0x10(%rbp),%rdx
    2d36:	48 8b 45 f8          	mov    -0x8(%rbp),%rax
    2d3a:	48 89 d6             	mov    %rdx,%rsi
    2d3d:	48 89 c7             	mov    %rax,%rdi
    2d40:	e8 bb 01 00 00       	call   2f00 <_ZN3tbb6detail2d19start_forINS1_13blocked_rangeImEEZ15square_elementsRSt6vectorIiSaIiEEEUlRKS4_E_KNS1_16auto_partitionerEE8finalizeERKNS1_14execution_dataE>
    2d45:	b8 00 00 00 00       	mov    $0x0,%eax
    2d4a:	c9                   	leave  
    2d4b:	c3                   	ret    

0000000000002d4c <_ZN3tbb6detail2d122dynamic_grainsize_modeINS1_13adaptive_modeINS1_19auto_partition_typeEEEE18check_being_stolenINS1_9start_forINS1_13blocked_rangeImEEZ15square_elementsRSt6vectorIiSaIiEEEUlRKSA_E_KNS1_16auto_partitionerEEEEEbRT_RKNS1_14execution_dataE>:
    2d4c:	55                   	push   %rbp
    2d4d:	48 89 e5             	mov    %rsp,%rbp
    2d50:	48 83 ec 20          	sub    $0x20,%rsp
    2d54:	48 89 7d f8          	mov    %rdi,-0x8(%rbp)
    2d58:	48 89 75 f0          	mov    %rsi,-0x10(%rbp)
    2d5c:	48 89 55 e8          	mov    %rdx,-0x18(%rbp)
    2d60:	48 8b 45 f8          	mov    -0x8(%rbp),%rax
    2d64:	48 89 c7             	mov    %rax,%rdi
    2d67:	e8 cc 30 00 00       	call   5e38 <_ZN3tbb6detail2d119partition_type_baseINS1_19auto_partition_typeEE4selfEv>
    2d6c:	48 8b 00             	mov    (%rax),%rax
    2d6f:	48 85 c0             	test   %rax,%rax
    2d72:	0f 94 c0             	sete   %al
    2d75:	84 c0                	test   %al,%al
    2d77:	0f 84 8f 00 00 00    	je     2e0c <_ZN3tbb6detail2d122dynamic_grainsize_modeINS1_13adaptive_modeINS1_19auto_partition_typeEEEE18check_being_stolenINS1_9start_forINS1_13blocked_rangeImEEZ15square_elementsRSt6vectorIiSaIiEEEUlRKSA_E_KNS1_16auto_partitionerEEEEEbRT_RKNS1_14execution_dataE+0xc0>
    2d7d:	48 8b 45 f8          	mov    -0x8(%rbp),%rax
    2d81:	48 89 c7             	mov    %rax,%rdi
    2d84:	e8 af 30 00 00       	call   5e38 <_ZN3tbb6detail2d119partition_type_baseINS1_19auto_partition_typeEE4selfEv>
    2d89:	48 c7 00 01 00 00 00 	movq   $0x1,(%rax)
    2d90:	48 8b 45 e8          	mov    -0x18(%rbp),%rax
    2d94:	48 89 c7             	mov    %rax,%rdi
    2d97:	e8 b6 f7 ff ff       	call   2552 <_ZN3tbb6detail2d1L14is_stolen_taskERKNS1_14execution_dataE>
    2d9c:	84 c0                	test   %al,%al
    2d9e:	74 20                	je     2dc0 <_ZN3tbb6detail2d122dynamic_grainsize_modeINS1_13adaptive_modeINS1_19auto_partition_typeEEEE18check_being_stolenINS1_9start_forINS1_13blocked_rangeImEEZ15square_elementsRSt6vectorIiSaIiEEEUlRKSA_E_KNS1_16auto_partitionerEEEEEbRT_RKNS1_14execution_dataE+0x74>
    2da0:	48 8b 45 f0          	mov    -0x10(%rbp),%rax
    2da4:	48 8b 40 60          	mov    0x60(%rax),%rax
    2da8:	48 83 c0 08          	add    $0x8,%rax
    2dac:	48 89 c7             	mov    %rax,%rdi
    2daf:	e8 96 30 00 00       	call   5e4a <_ZNKSt13__atomic_baseIiEcviEv>
    2db4:	83 f8 01             	cmp    $0x1,%eax
    2db7:	7e 07                	jle    2dc0 <_ZN3tbb6detail2d122dynamic_grainsize_modeINS1_13adaptive_modeINS1_19auto_partition_typeEEEE18check_being_stolenINS1_9start_forINS1_13blocked_rangeImEEZ15square_elementsRSt6vectorIiSaIiEEEUlRKSA_E_KNS1_16auto_partitionerEEEEEbRT_RKNS1_14execution_dataE+0x74>
    2db9:	b8 01 00 00 00       	mov    $0x1,%eax
    2dbe:	eb 05                	jmp    2dc5 <_ZN3tbb6detail2d122dynamic_grainsize_modeINS1_13adaptive_modeINS1_19auto_partition_typeEEEE18check_being_stolenINS1_9start_forINS1_13blocked_rangeImEEZ15square_elementsRSt6vectorIiSaIiEEEUlRKSA_E_KNS1_16auto_partitionerEEEEEbRT_RKNS1_14execution_dataE+0x79>
    2dc0:	b8 00 00 00 00       	mov    $0x0,%eax
    2dc5:	84 c0                	test   %al,%al
    2dc7:	74 43                	je     2e0c <_ZN3tbb6detail2d122dynamic_grainsize_modeINS1_13adaptive_modeINS1_19auto_partition_typeEEEE18check_being_stolenINS1_9start_forINS1_13blocked_rangeImEEZ15square_elementsRSt6vectorIiSaIiEEEUlRKSA_E_KNS1_16auto_partitionerEEEEEbRT_RKNS1_14execution_dataE+0xc0>
    2dc9:	48 8b 45 f0          	mov    -0x10(%rbp),%rax
    2dcd:	48 89 c7             	mov    %rax,%rdi
    2dd0:	e8 ba 01 00 00       	call   2f8f <_ZN3tbb6detail2d19tree_node16mark_task_stolenINS1_9start_forINS1_13blocked_rangeImEEZ15square_elementsRSt6vectorIiSaIiEEEUlRKS6_E_KNS1_16auto_partitionerEEEEEvRT_>
    2dd5:	48 8b 45 f8          	mov    -0x8(%rbp),%rax
    2dd9:	0f b6 40 0c          	movzbl 0xc(%rax),%eax
    2ddd:	84 c0                	test   %al,%al
    2ddf:	75 12                	jne    2df3 <_ZN3tbb6detail2d122dynamic_grainsize_modeINS1_13adaptive_modeINS1_19auto_partition_typeEEEE18check_being_stolenINS1_9start_forINS1_13blocked_rangeImEEZ15square_elementsRSt6vectorIiSaIiEEEUlRKSA_E_KNS1_16auto_partitionerEEEEEbRT_RKNS1_14execution_dataE+0xa7>
    2de1:	48 8b 45 f8          	mov    -0x8(%rbp),%rax
    2de5:	0f b6 40 0c          	movzbl 0xc(%rax),%eax
    2de9:	8d 50 01             	lea    0x1(%rax),%edx
    2dec:	48 8b 45 f8          	mov    -0x8(%rbp),%rax
    2df0:	88 50 0c             	mov    %dl,0xc(%rax)
    2df3:	48 8b 45 f8          	mov    -0x8(%rbp),%rax
    2df7:	0f b6 40 0c          	movzbl 0xc(%rax),%eax
    2dfb:	8d 50 01             	lea    0x1(%rax),%edx
    2dfe:	48 8b 45 f8          	mov    -0x8(%rbp),%rax
    2e02:	88 50 0c             	mov    %dl,0xc(%rax)
    2e05:	b8 01 00 00 00       	mov    $0x1,%eax
    2e0a:	eb 05                	jmp    2e11 <_ZN3tbb6detail2d122dynamic_grainsize_modeINS1_13adaptive_modeINS1_19auto_partition_typeEEEE18check_being_stolenINS1_9start_forINS1_13blocked_rangeImEEZ15square_elementsRSt6vectorIiSaIiEEEUlRKSA_E_KNS1_16auto_partitionerEEEEEbRT_RKNS1_14execution_dataE+0xc5>
    2e0c:	b8 00 00 00 00       	mov    $0x0,%eax
    2e11:	c9                   	leave  
    2e12:	c3                   	ret    
    2e13:	90                   	nop

0000000000002e14 <_ZN3tbb6detail2d119partition_type_baseINS1_19auto_partition_typeEE7executeINS1_9start_forINS1_13blocked_rangeImEEZ15square_elementsRSt6vectorIiSaIiEEEUlRKS8_E_KNS1_16auto_partitionerEEES8_EEvRT_RT0_RNS1_14execution_dataE>:
    2e14:	55                   	push   %rbp
    2e15:	48 89 e5             	mov    %rsp,%rbp
    2e18:	48 83 ec 30          	sub    $0x30,%rsp
    2e1c:	48 89 7d e8          	mov    %rdi,-0x18(%rbp)
    2e20:	48 89 75 e0          	mov    %rsi,-0x20(%rbp)
    2e24:	48 89 55 d8          	mov    %rdx,-0x28(%rbp)
    2e28:	48 89 4d d0          	mov    %rcx,-0x30(%rbp)
    2e2c:	64 48 8b 04 25 28 00 	mov    %fs:0x28,%rax
    2e33:	00 00 
    2e35:	48 89 45 f8          	mov    %rax,-0x8(%rbp)
    2e39:	31 c0                	xor    %eax,%eax
    2e3b:	48 8b 45 d8          	mov    -0x28(%rbp),%rax
    2e3f:	48 89 c7             	mov    %rax,%rdi
    2e42:	e8 3d 30 00 00       	call   5e84 <_ZNK3tbb6detail2d113blocked_rangeImE12is_divisibleEv>
    2e47:	84 c0                	test   %al,%al
    2e49:	74 7b                	je     2ec6 <_ZN3tbb6detail2d119partition_type_baseINS1_19auto_partition_typeEE7executeINS1_9start_forINS1_13blocked_rangeImEEZ15square_elementsRSt6vectorIiSaIiEEEUlRKS8_E_KNS1_16auto_partitionerEEES8_EEvRT_RT0_RNS1_14execution_dataE+0xb2>
    2e4b:	48 8b 45 e8          	mov    -0x18(%rbp),%rax
    2e4f:	48 89 c7             	mov    %rax,%rdi
    2e52:	e8 e1 2f 00 00       	call   5e38 <_ZN3tbb6detail2d119partition_type_baseINS1_19auto_partition_typeEE4selfEv>
    2e57:	48 89 c7             	mov    %rax,%rdi
    2e5a:	e8 cb 1a 00 00       	call   492a <_ZN3tbb6detail2d119auto_partition_type12is_divisibleEv>
    2e5f:	84 c0                	test   %al,%al
    2e61:	74 63                	je     2ec6 <_ZN3tbb6detail2d119partition_type_baseINS1_19auto_partition_typeEE7executeINS1_9start_forINS1_13blocked_rangeImEEZ15square_elementsRSt6vectorIiSaIiEEEUlRKS8_E_KNS1_16auto_partitionerEEES8_EEvRT_RT0_RNS1_14execution_dataE+0xb2>
    2e63:	48 8b 45 e8          	mov    -0x18(%rbp),%rax
    2e67:	48 89 c7             	mov    %rax,%rdi
    2e6a:	e8 c9 2f 00 00       	call   5e38 <_ZN3tbb6detail2d119partition_type_baseINS1_19auto_partition_typeEE4selfEv>
    2e6f:	48 89 c7             	mov    %rax,%rdi
    2e72:	e8 3f 30 00 00       	call   5eb6 <_ZN3tbb6detail2d119partition_type_baseINS1_19auto_partition_typeEE9get_splitINS1_13blocked_rangeImEEEENS0_2d05splitEv>
    2e77:	48 8b 55 d0          	mov    -0x30(%rbp),%rdx
    2e7b:	48 8d 4d f7          	lea    -0x9(%rbp),%rcx
    2e7f:	48 8b 45 e0          	mov    -0x20(%rbp),%rax
    2e83:	48 89 ce             	mov    %rcx,%rsi
    2e86:	48 89 c7             	mov    %rax,%rdi
    2e89:	e8 36 01 00 00       	call   2fc4 <_ZN3tbb6detail2d19start_forINS1_13blocked_rangeImEEZ15square_elementsRSt6vectorIiSaIiEEEUlRKS4_E_KNS1_16auto_partitionerEE10offer_workERNS0_2d05splitERNS1_14execution_dataE>
    2e8e:	48 8b 45 d8          	mov    -0x28(%rbp),%rax
    2e92:	48 89 c7             	mov    %rax,%rdi
    2e95:	e8 ea 2f 00 00       	call   5e84 <_ZNK3tbb6detail2d113blocked_rangeImE12is_divisibleEv>
    2e9a:	84 c0                	test   %al,%al
    2e9c:	74 1f                	je     2ebd <_ZN3tbb6detail2d119partition_type_baseINS1_19auto_partition_typeEE7executeINS1_9start_forINS1_13blocked_rangeImEEZ15square_elementsRSt6vectorIiSaIiEEEUlRKS8_E_KNS1_16auto_partitionerEEES8_EEvRT_RT0_RNS1_14execution_dataE+0xa9>
    2e9e:	48 8b 45 e8          	mov    -0x18(%rbp),%rax
    2ea2:	48 89 c7             	mov    %rax,%rdi
    2ea5:	e8 8e 2f 00 00       	call   5e38 <_ZN3tbb6detail2d119partition_type_baseINS1_19auto_partition_typeEE4selfEv>
    2eaa:	48 89 c7             	mov    %rax,%rdi
    2ead:	e8 78 1a 00 00       	call   492a <_ZN3tbb6detail2d119auto_partition_type12is_divisibleEv>
    2eb2:	84 c0                	test   %al,%al
    2eb4:	74 07                	je     2ebd <_ZN3tbb6detail2d119partition_type_baseINS1_19auto_partition_typeEE7executeINS1_9start_forINS1_13blocked_rangeImEEZ15square_elementsRSt6vectorIiSaIiEEEUlRKS8_E_KNS1_16auto_partitionerEEES8_EEvRT_RT0_RNS1_14execution_dataE+0xa9>
    2eb6:	b8 01 00 00 00       	mov    $0x1,%eax
    2ebb:	eb 05                	jmp    2ec2 <_ZN3tbb6detail2d119partition_type_baseINS1_19auto_partition_typeEE7executeINS1_9start_forINS1_13blocked_rangeImEEZ15square_elementsRSt6vectorIiSaIiEEEUlRKS8_E_KNS1_16auto_partitionerEEES8_EEvRT_RT0_RNS1_14execution_dataE+0xae>
    2ebd:	b8 00 00 00 00       	mov    $0x0,%eax
    2ec2:	84 c0                	test   %al,%al
    2ec4:	75 9d                	jne    2e63 <_ZN3tbb6detail2d119partition_type_baseINS1_19auto_partition_typeEE7executeINS1_9start_forINS1_13blocked_rangeImEEZ15square_elementsRSt6vectorIiSaIiEEEUlRKS8_E_KNS1_16auto_partitionerEEES8_EEvRT_RT0_RNS1_14execution_dataE+0x4f>
    2ec6:	48 8b 45 e8          	mov    -0x18(%rbp),%rax
    2eca:	48 89 c7             	mov    %rax,%rdi
    2ecd:	e8 66 2f 00 00       	call   5e38 <_ZN3tbb6detail2d119partition_type_baseINS1_19auto_partition_typeEE4selfEv>
    2ed2:	48 89 c7             	mov    %rax,%rdi
    2ed5:	48 8b 4d d0          	mov    -0x30(%rbp),%rcx
    2ed9:	48 8b 55 d8          	mov    -0x28(%rbp),%rdx
    2edd:	48 8b 45 e0          	mov    -0x20(%rbp),%rax
    2ee1:	48 89 c6             	mov    %rax,%rsi
    2ee4:	e8 0b 01 00 00       	call   2ff4 <_ZN3tbb6detail2d122dynamic_grainsize_modeINS1_13adaptive_modeINS1_19auto_partition_typeEEEE12work_balanceINS1_9start_forINS1_13blocked_rangeImEEZ15square_elementsRSt6vectorIiSaIiEEEUlRKSA_E_KNS1_16auto_partitionerEEESA_EEvRT_RT0_RNS1_14execution_dataE>
    2ee9:	90                   	nop
    2eea:	48 8b 45 f8          	mov    -0x8(%rbp),%rax
    2eee:	64 48 2b 04 25 28 00 	sub    %fs:0x28,%rax
    2ef5:	00 00 
    2ef7:	74 05                	je     2efe <_ZN3tbb6detail2d119partition_type_baseINS1_19auto_partition_typeEE7executeINS1_9start_forINS1_13blocked_rangeImEEZ15square_elementsRSt6vectorIiSaIiEEEUlRKS8_E_KNS1_16auto_partitionerEEES8_EEvRT_RT0_RNS1_14execution_dataE+0xea>
    2ef9:	e8 52 f4 ff ff       	call   2350 <__stack_chk_fail@plt>
    2efe:	c9                   	leave  
    2eff:	c3                   	ret    

0000000000002f00 <_ZN3tbb6detail2d19start_forINS1_13blocked_rangeImEEZ15square_elementsRSt6vectorIiSaIiEEEUlRKS4_E_KNS1_16auto_partitionerEE8finalizeERKNS1_14execution_dataE>:
    2f00:	f3 0f 1e fa          	endbr64 
    2f04:	55                   	push   %rbp
    2f05:	48 89 e5             	mov    %rsp,%rbp
    2f08:	48 83 ec 30          	sub    $0x30,%rsp
    2f0c:	48 89 7d d8          	mov    %rdi,-0x28(%rbp)
    2f10:	48 89 75 d0          	mov    %rsi,-0x30(%rbp)
    2f14:	64 48 8b 04 25 28 00 	mov    %fs:0x28,%rax
    2f1b:	00 00 
    2f1d:	48 89 45 f8          	mov    %rax,-0x8(%rbp)
    2f21:	31 c0                	xor    %eax,%eax
    2f23:	48 8b 45 d8          	mov    -0x28(%rbp),%rax
    2f27:	48 8b 40 60          	mov    0x60(%rax),%rax
    2f2b:	48 89 45 f0          	mov    %rax,-0x10(%rbp)
    2f2f:	48 8b 45 d8          	mov    -0x28(%rbp),%rax
    2f33:	48 8b 40 78          	mov    0x78(%rax),%rax
    2f37:	48 89 45 e8          	mov    %rax,-0x18(%rbp)
    2f3b:	48 8b 45 d8          	mov    -0x28(%rbp),%rax
    2f3f:	48 8b 00             	mov    (%rax),%rax
    2f42:	48 8b 10             	mov    (%rax),%rdx
    2f45:	48 8b 45 d8          	mov    -0x28(%rbp),%rax
    2f49:	48 89 c7             	mov    %rax,%rdi
    2f4c:	ff d2                	call   *%rdx
    2f4e:	48 8b 55 d0          	mov    -0x30(%rbp),%rdx
    2f52:	48 8b 45 f0          	mov    -0x10(%rbp),%rax
    2f56:	48 89 d6             	mov    %rdx,%rsi
    2f59:	48 89 c7             	mov    %rax,%rdi
    2f5c:	e8 64 2f 00 00       	call   5ec5 <_ZN3tbb6detail2d19fold_treeINS1_9tree_nodeEEEvPNS1_4nodeERKNS1_14execution_dataE>
    2f61:	48 8b 55 d0          	mov    -0x30(%rbp),%rdx
    2f65:	48 8b 4d d8          	mov    -0x28(%rbp),%rcx
    2f69:	48 8d 45 e8          	lea    -0x18(%rbp),%rax
    2f6d:	48 89 ce             	mov    %rcx,%rsi
    2f70:	48 89 c7             	mov    %rax,%rdi
    2f73:	e8 de 02 00 00       	call   3256 <_ZN3tbb6detail2d122small_object_allocator10deallocateINS1_9start_forINS1_13blocked_rangeImEEZ15square_elementsRSt6vectorIiSaIiEEEUlRKS6_E_KNS1_16auto_partitionerEEEEEvPT_RKNS1_14execution_dataE>
    2f78:	90                   	nop
    2f79:	48 8b 45 f8          	mov    -0x8(%rbp),%rax
    2f7d:	64 48 2b 04 25 28 00 	sub    %fs:0x28,%rax
    2f84:	00 00 
    2f86:	74 05                	je     2f8d <_ZN3tbb6detail2d19start_forINS1_13blocked_rangeImEEZ15square_elementsRSt6vectorIiSaIiEEEUlRKS4_E_KNS1_16auto_partitionerEE8finalizeERKNS1_14execution_dataE+0x8d>
    2f88:	e8 c3 f3 ff ff       	call   2350 <__stack_chk_fail@plt>
    2f8d:	c9                   	leave  
    2f8e:	c3                   	ret    

0000000000002f8f <_ZN3tbb6detail2d19tree_node16mark_task_stolenINS1_9start_forINS1_13blocked_rangeImEEZ15square_elementsRSt6vectorIiSaIiEEEUlRKS6_E_KNS1_16auto_partitionerEEEEEvRT_>:
    2f8f:	55                   	push   %rbp
    2f90:	48 89 e5             	mov    %rsp,%rbp
    2f93:	48 83 ec 20          	sub    $0x20,%rsp
    2f97:	48 89 7d e8          	mov    %rdi,-0x18(%rbp)
    2f9b:	48 8b 45 e8          	mov    -0x18(%rbp),%rax
    2f9f:	48 8b 40 60          	mov    0x60(%rax),%rax
    2fa3:	48 83 c0 18          	add    $0x18,%rax
    2fa7:	48 89 45 f8          	mov    %rax,-0x8(%rbp)
    2fab:	48 8b 45 f8          	mov    -0x8(%rbp),%rax
    2faf:	ba 00 00 00 00       	mov    $0x0,%edx
    2fb4:	be 01 00 00 00       	mov    $0x1,%esi
    2fb9:	48 89 c7             	mov    %rax,%rdi
    2fbc:	e8 6d 0a 00 00       	call   3a2e <_ZNSt6atomicIbE5storeEbSt12memory_order>
    2fc1:	90                   	nop
    2fc2:	c9                   	leave  
    2fc3:	c3                   	ret    

0000000000002fc4 <_ZN3tbb6detail2d19start_forINS1_13blocked_rangeImEEZ15square_elementsRSt6vectorIiSaIiEEEUlRKS4_E_KNS1_16auto_partitionerEE10offer_workERNS0_2d05splitERNS1_14execution_dataE>:
    2fc4:	55                   	push   %rbp
    2fc5:	48 89 e5             	mov    %rsp,%rbp
    2fc8:	48 83 ec 20          	sub    $0x20,%rsp
    2fcc:	48 89 7d f8          	mov    %rdi,-0x8(%rbp)
    2fd0:	48 89 75 f0          	mov    %rsi,-0x10(%rbp)
    2fd4:	48 89 55 e8          	mov    %rdx,-0x18(%rbp)
    2fd8:	48 8b 4d f0          	mov    -0x10(%rbp),%rcx
    2fdc:	48 8b 55 f8          	mov    -0x8(%rbp),%rdx
    2fe0:	48 8b 75 e8          	mov    -0x18(%rbp),%rsi
    2fe4:	48 8b 45 f8          	mov    -0x8(%rbp),%rax
    2fe8:	48 89 c7             	mov    %rax,%rdi
    2feb:	e8 ae 02 00 00       	call   329e <_ZN3tbb6detail2d19start_forINS1_13blocked_rangeImEEZ15square_elementsRSt6vectorIiSaIiEEEUlRKS4_E_KNS1_16auto_partitionerEE15offer_work_implIJRSE_RNS0_2d05splitEEEEvRNS1_14execution_dataEDpOT_>
    2ff0:	90                   	nop
    2ff1:	c9                   	leave  
    2ff2:	c3                   	ret    
    2ff3:	90                   	nop

0000000000002ff4 <_ZN3tbb6detail2d122dynamic_grainsize_modeINS1_13adaptive_modeINS1_19auto_partition_typeEEEE12work_balanceINS1_9start_forINS1_13blocked_rangeImEEZ15square_elementsRSt6vectorIiSaIiEEEUlRKSA_E_KNS1_16auto_partitionerEEESA_EEvRT_RT0_RNS1_14execution_dataE>:
    2ff4:	55                   	push   %rbp
    2ff5:	48 89 e5             	mov    %rsp,%rbp
    2ff8:	53                   	push   %rbx
    2ff9:	48 81 ec 08 01 00 00 	sub    $0x108,%rsp
    3000:	48 89 bd 08 ff ff ff 	mov    %rdi,-0xf8(%rbp)
    3007:	48 89 b5 00 ff ff ff 	mov    %rsi,-0x100(%rbp)
    300e:	48 89 95 f8 fe ff ff 	mov    %rdx,-0x108(%rbp)
    3015:	48 89 8d f0 fe ff ff 	mov    %rcx,-0x110(%rbp)
    301c:	64 48 8b 04 25 28 00 	mov    %fs:0x28,%rax
    3023:	00 00 
    3025:	48 89 45 e8          	mov    %rax,-0x18(%rbp)
    3029:	31 c0                	xor    %eax,%eax
    302b:	48 8b 85 f8 fe ff ff 	mov    -0x108(%rbp),%rax
    3032:	48 89 c7             	mov    %rax,%rdi
    3035:	e8 4a 2e 00 00       	call   5e84 <_ZNK3tbb6detail2d113blocked_rangeImE12is_divisibleEv>
    303a:	83 f0 01             	xor    $0x1,%eax
    303d:	84 c0                	test   %al,%al
    303f:	75 1b                	jne    305c <_ZN3tbb6detail2d122dynamic_grainsize_modeINS1_13adaptive_modeINS1_19auto_partition_typeEEEE12work_balanceINS1_9start_forINS1_13blocked_rangeImEEZ15square_elementsRSt6vectorIiSaIiEEEUlRKSA_E_KNS1_16auto_partitionerEEESA_EEvRT_RT0_RNS1_14execution_dataE+0x68>
    3041:	48 8b 85 08 ff ff ff 	mov    -0xf8(%rbp),%rax
    3048:	48 89 c7             	mov    %rax,%rdi
    304b:	e8 e8 2d 00 00       	call   5e38 <_ZN3tbb6detail2d119partition_type_baseINS1_19auto_partition_typeEE4selfEv>
    3050:	48 89 c7             	mov    %rax,%rdi
    3053:	e8 58 2f 00 00       	call   5fb0 <_ZN3tbb6detail2d122dynamic_grainsize_modeINS1_13adaptive_modeINS1_19auto_partition_typeEEEE9max_depthEv>
    3058:	84 c0                	test   %al,%al
    305a:	75 07                	jne    3063 <_ZN3tbb6detail2d122dynamic_grainsize_modeINS1_13adaptive_modeINS1_19auto_partition_typeEEEE12work_balanceINS1_9start_forINS1_13blocked_rangeImEEZ15square_elementsRSt6vectorIiSaIiEEEUlRKSA_E_KNS1_16auto_partitionerEEESA_EEvRT_RT0_RNS1_14execution_dataE+0x6f>
    305c:	b8 01 00 00 00       	mov    $0x1,%eax
    3061:	eb 05                	jmp    3068 <_ZN3tbb6detail2d122dynamic_grainsize_modeINS1_13adaptive_modeINS1_19auto_partition_typeEEEE12work_balanceINS1_9start_forINS1_13blocked_rangeImEEZ15square_elementsRSt6vectorIiSaIiEEEUlRKSA_E_KNS1_16auto_partitionerEEESA_EEvRT_RT0_RNS1_14execution_dataE+0x74>
    3063:	b8 00 00 00 00       	mov    $0x0,%eax
    3068:	84 c0                	test   %al,%al
    306a:	74 1e                	je     308a <_ZN3tbb6detail2d122dynamic_grainsize_modeINS1_13adaptive_modeINS1_19auto_partition_typeEEEE12work_balanceINS1_9start_forINS1_13blocked_rangeImEEZ15square_elementsRSt6vectorIiSaIiEEEUlRKSA_E_KNS1_16auto_partitionerEEESA_EEvRT_RT0_RNS1_14execution_dataE+0x96>
    306c:	48 8b 95 f8 fe ff ff 	mov    -0x108(%rbp),%rdx
    3073:	48 8b 85 00 ff ff ff 	mov    -0x100(%rbp),%rax
    307a:	48 89 d6             	mov    %rdx,%rsi
    307d:	48 89 c7             	mov    %rax,%rdi
    3080:	e8 fb 02 00 00       	call   3380 <_ZN3tbb6detail2d19start_forINS1_13blocked_rangeImEEZ15square_elementsRSt6vectorIiSaIiEEEUlRKS4_E_KNS1_16auto_partitionerEE8run_bodyERS4_>
    3085:	e9 b2 01 00 00       	jmp    323c <_ZN3tbb6detail2d122dynamic_grainsize_modeINS1_13adaptive_modeINS1_19auto_partition_typeEEEE12work_balanceINS1_9start_forINS1_13blocked_rangeImEEZ15square_elementsRSt6vectorIiSaIiEEEUlRKSA_E_KNS1_16auto_partitionerEEESA_EEvRT_RT0_RNS1_14execution_dataE+0x248>
    308a:	48 8b 95 f8 fe ff ff 	mov    -0x108(%rbp),%rdx
    3091:	48 8d 85 10 ff ff ff 	lea    -0xf0(%rbp),%rax
    3098:	48 89 d6             	mov    %rdx,%rsi
    309b:	48 89 c7             	mov    %rax,%rdi
    309e:	e8 23 2f 00 00       	call   5fc6 <_ZN3tbb6detail2d112range_vectorINS1_13blocked_rangeImEELh8EEC1ERKS4_>
    30a3:	48 8b 85 08 ff ff ff 	mov    -0xf8(%rbp),%rax
    30aa:	48 89 c7             	mov    %rax,%rdi
    30ad:	e8 86 2d 00 00       	call   5e38 <_ZN3tbb6detail2d119partition_type_baseINS1_19auto_partition_typeEE4selfEv>
    30b2:	48 89 c7             	mov    %rax,%rdi
    30b5:	e8 f6 2e 00 00       	call   5fb0 <_ZN3tbb6detail2d122dynamic_grainsize_modeINS1_13adaptive_modeINS1_19auto_partition_typeEEEE9max_depthEv>
    30ba:	0f b6 d0             	movzbl %al,%edx
    30bd:	48 8d 85 10 ff ff ff 	lea    -0xf0(%rbp),%rax
    30c4:	89 d6                	mov    %edx,%esi
    30c6:	48 89 c7             	mov    %rax,%rdi
    30c9:	e8 9e 2f 00 00       	call   606c <_ZN3tbb6detail2d112range_vectorINS1_13blocked_rangeImEELh8EE13split_to_fillEh>
    30ce:	48 8b 85 08 ff ff ff 	mov    -0xf8(%rbp),%rax
    30d5:	48 89 c7             	mov    %rax,%rdi
    30d8:	e8 5b 2d 00 00       	call   5e38 <_ZN3tbb6detail2d119partition_type_baseINS1_19auto_partition_typeEE4selfEv>
    30dd:	48 89 c2             	mov    %rax,%rdx
    30e0:	48 8b 85 00 ff ff ff 	mov    -0x100(%rbp),%rax
    30e7:	48 89 c6             	mov    %rax,%rsi
    30ea:	48 89 d7             	mov    %rdx,%rdi
    30ed:	e8 b8 02 00 00       	call   33aa <_ZN3tbb6detail2d119auto_partition_type16check_for_demandINS1_9start_forINS1_13blocked_rangeImEEZ15square_elementsRSt6vectorIiSaIiEEEUlRKS6_E_KNS1_16auto_partitionerEEEEEbRT_>
    30f2:	84 c0                	test   %al,%al
    30f4:	0f 84 97 00 00 00    	je     3191 <_ZN3tbb6detail2d122dynamic_grainsize_modeINS1_13adaptive_modeINS1_19auto_partition_typeEEEE12work_balanceINS1_9start_forINS1_13blocked_rangeImEEZ15square_elementsRSt6vectorIiSaIiEEEUlRKSA_E_KNS1_16auto_partitionerEEESA_EEvRT_RT0_RNS1_14execution_dataE+0x19d>
    30fa:	48 8d 85 10 ff ff ff 	lea    -0xf0(%rbp),%rax
    3101:	48 89 c7             	mov    %rax,%rdi
    3104:	e8 6b 31 00 00       	call   6274 <_ZNK3tbb6detail2d112range_vectorINS1_13blocked_rangeImEELh8EE4sizeEv>
    3109:	3c 01                	cmp    $0x1,%al
    310b:	0f 97 c0             	seta   %al
    310e:	84 c0                	test   %al,%al
    3110:	74 50                	je     3162 <_ZN3tbb6detail2d122dynamic_grainsize_modeINS1_13adaptive_modeINS1_19auto_partition_typeEEEE12work_balanceINS1_9start_forINS1_13blocked_rangeImEEZ15square_elementsRSt6vectorIiSaIiEEEUlRKSA_E_KNS1_16auto_partitionerEEESA_EEvRT_RT0_RNS1_14execution_dataE+0x16e>
    3112:	48 8d 85 10 ff ff ff 	lea    -0xf0(%rbp),%rax
    3119:	48 89 c7             	mov    %rax,%rdi
    311c:	e8 a9 31 00 00       	call   62ca <_ZN3tbb6detail2d112range_vectorINS1_13blocked_rangeImEELh8EE11front_depthEv>
    3121:	0f b6 d8             	movzbl %al,%ebx
    3124:	48 8d 85 10 ff ff ff 	lea    -0xf0(%rbp),%rax
    312b:	48 89 c7             	mov    %rax,%rdi
    312e:	e8 57 31 00 00       	call   628a <_ZN3tbb6detail2d112range_vectorINS1_13blocked_rangeImEELh8EE5frontEv>
    3133:	48 89 c6             	mov    %rax,%rsi
    3136:	48 8b 95 f0 fe ff ff 	mov    -0x110(%rbp),%rdx
    313d:	48 8b 85 00 ff ff ff 	mov    -0x100(%rbp),%rax
    3144:	48 89 d1             	mov    %rdx,%rcx
    3147:	89 da                	mov    %ebx,%edx
    3149:	48 89 c7             	mov    %rax,%rdi
    314c:	e8 99 02 00 00       	call   33ea <_ZN3tbb6detail2d19start_forINS1_13blocked_rangeImEEZ15square_elementsRSt6vectorIiSaIiEEEUlRKS4_E_KNS1_16auto_partitionerEE10offer_workESA_hRNS1_14execution_dataE>
    3151:	48 8d 85 10 ff ff ff 	lea    -0xf0(%rbp),%rax
    3158:	48 89 c7             	mov    %rax,%rdi
    315b:	e8 8e 31 00 00       	call   62ee <_ZN3tbb6detail2d112range_vectorINS1_13blocked_rangeImEELh8EE9pop_frontEv>
    3160:	eb 65                	jmp    31c7 <_ZN3tbb6detail2d122dynamic_grainsize_modeINS1_13adaptive_modeINS1_19auto_partition_typeEEEE12work_balanceINS1_9start_forINS1_13blocked_rangeImEEZ15square_elementsRSt6vectorIiSaIiEEEUlRKSA_E_KNS1_16auto_partitionerEEESA_EEvRT_RT0_RNS1_14execution_dataE+0x1d3>
    3162:	48 8b 85 08 ff ff ff 	mov    -0xf8(%rbp),%rax
    3169:	48 89 c7             	mov    %rax,%rdi
    316c:	e8 c7 2c 00 00       	call   5e38 <_ZN3tbb6detail2d119partition_type_baseINS1_19auto_partition_typeEE4selfEv>
    3171:	48 89 c7             	mov    %rax,%rdi
    3174:	e8 37 2e 00 00       	call   5fb0 <_ZN3tbb6detail2d122dynamic_grainsize_modeINS1_13adaptive_modeINS1_19auto_partition_typeEEEE9max_depthEv>
    3179:	0f b6 d0             	movzbl %al,%edx
    317c:	48 8d 85 10 ff ff ff 	lea    -0xf0(%rbp),%rax
    3183:	89 d6                	mov    %edx,%esi
    3185:	48 89 c7             	mov    %rax,%rdi
    3188:	e8 d1 31 00 00       	call   635e <_ZN3tbb6detail2d112range_vectorINS1_13blocked_rangeImEELh8EE12is_divisibleEh>
    318d:	84 c0                	test   %al,%al
    318f:	75 35                	jne    31c6 <_ZN3tbb6detail2d122dynamic_grainsize_modeINS1_13adaptive_modeINS1_19auto_partition_typeEEEE12work_balanceINS1_9start_forINS1_13blocked_rangeImEEZ15square_elementsRSt6vectorIiSaIiEEEUlRKSA_E_KNS1_16auto_partitionerEEESA_EEvRT_RT0_RNS1_14execution_dataE+0x1d2>
    3191:	48 8d 85 10 ff ff ff 	lea    -0xf0(%rbp),%rax
    3198:	48 89 c7             	mov    %rax,%rdi
    319b:	e8 0a 32 00 00       	call   63aa <_ZN3tbb6detail2d112range_vectorINS1_13blocked_rangeImEELh8EE4backEv>
    31a0:	48 89 c2             	mov    %rax,%rdx
    31a3:	48 8b 85 00 ff ff ff 	mov    -0x100(%rbp),%rax
    31aa:	48 89 d6             	mov    %rdx,%rsi
    31ad:	48 89 c7             	mov    %rax,%rdi
    31b0:	e8 cb 01 00 00       	call   3380 <_ZN3tbb6detail2d19start_forINS1_13blocked_rangeImEEZ15square_elementsRSt6vectorIiSaIiEEEUlRKS4_E_KNS1_16auto_partitionerEE8run_bodyERS4_>
    31b5:	48 8d 85 10 ff ff ff 	lea    -0xf0(%rbp),%rax
    31bc:	48 89 c7             	mov    %rax,%rdi
    31bf:	e8 26 32 00 00       	call   63ea <_ZN3tbb6detail2d112range_vectorINS1_13blocked_rangeImEELh8EE8pop_backEv>
    31c4:	eb 01                	jmp    31c7 <_ZN3tbb6detail2d122dynamic_grainsize_modeINS1_13adaptive_modeINS1_19auto_partition_typeEEEE12work_balanceINS1_9start_forINS1_13blocked_rangeImEEZ15square_elementsRSt6vectorIiSaIiEEEUlRKSA_E_KNS1_16auto_partitionerEEESA_EEvRT_RT0_RNS1_14execution_dataE+0x1d3>
    31c6:	90                   	nop
    31c7:	48 8d 85 10 ff ff ff 	lea    -0xf0(%rbp),%rax
    31ce:	48 89 c7             	mov    %rax,%rdi
    31d1:	e8 80 32 00 00       	call   6456 <_ZNK3tbb6detail2d112range_vectorINS1_13blocked_rangeImEELh8EE5emptyEv>
    31d6:	83 f0 01             	xor    $0x1,%eax
    31d9:	84 c0                	test   %al,%al
    31db:	74 20                	je     31fd <_ZN3tbb6detail2d122dynamic_grainsize_modeINS1_13adaptive_modeINS1_19auto_partition_typeEEEE12work_balanceINS1_9start_forINS1_13blocked_rangeImEEZ15square_elementsRSt6vectorIiSaIiEEEUlRKSA_E_KNS1_16auto_partitionerEEESA_EEvRT_RT0_RNS1_14execution_dataE+0x209>
    31dd:	48 8b 85 f0 fe ff ff 	mov    -0x110(%rbp),%rax
    31e4:	48 8b 00             	mov    (%rax),%rax
    31e7:	48 89 c7             	mov    %rax,%rdi
    31ea:	e8 ef 11 00 00       	call   43de <_ZN3tbb6detail2d118task_group_context28is_group_execution_cancelledEv>
    31ef:	83 f0 01             	xor    $0x1,%eax
    31f2:	84 c0                	test   %al,%al
    31f4:	74 07                	je     31fd <_ZN3tbb6detail2d122dynamic_grainsize_modeINS1_13adaptive_modeINS1_19auto_partition_typeEEEE12work_balanceINS1_9start_forINS1_13blocked_rangeImEEZ15square_elementsRSt6vectorIiSaIiEEEUlRKSA_E_KNS1_16auto_partitionerEEESA_EEvRT_RT0_RNS1_14execution_dataE+0x209>
    31f6:	b8 01 00 00 00       	mov    $0x1,%eax
    31fb:	eb 05                	jmp    3202 <_ZN3tbb6detail2d122dynamic_grainsize_modeINS1_13adaptive_modeINS1_19auto_partition_typeEEEE12work_balanceINS1_9start_forINS1_13blocked_rangeImEEZ15square_elementsRSt6vectorIiSaIiEEEUlRKSA_E_KNS1_16auto_partitionerEEESA_EEvRT_RT0_RNS1_14execution_dataE+0x20e>
    31fd:	b8 00 00 00 00       	mov    $0x0,%eax
    3202:	84 c0                	test   %al,%al
    3204:	0f 85 99 fe ff ff    	jne    30a3 <_ZN3tbb6detail2d122dynamic_grainsize_modeINS1_13adaptive_modeINS1_19auto_partition_typeEEEE12work_balanceINS1_9start_forINS1_13blocked_rangeImEEZ15square_elementsRSt6vectorIiSaIiEEEUlRKSA_E_KNS1_16auto_partitionerEEESA_EEvRT_RT0_RNS1_14execution_dataE+0xaf>
    320a:	48 8d 85 10 ff ff ff 	lea    -0xf0(%rbp),%rax
    3211:	48 89 c7             	mov    %rax,%rdi
    3214:	e8 1d 2e 00 00       	call   6036 <_ZN3tbb6detail2d112range_vectorINS1_13blocked_rangeImEELh8EED1Ev>
    3219:	eb 21                	jmp    323c <_ZN3tbb6detail2d122dynamic_grainsize_modeINS1_13adaptive_modeINS1_19auto_partition_typeEEEE12work_balanceINS1_9start_forINS1_13blocked_rangeImEEZ15square_elementsRSt6vectorIiSaIiEEEUlRKSA_E_KNS1_16auto_partitionerEEESA_EEvRT_RT0_RNS1_14execution_dataE+0x248>
    321b:	f3 0f 1e fa          	endbr64 
    321f:	48 89 c3             	mov    %rax,%rbx
    3222:	48 8d 85 10 ff ff ff 	lea    -0xf0(%rbp),%rax
    3229:	48 89 c7             	mov    %rax,%rdi
    322c:	e8 05 2e 00 00       	call   6036 <_ZN3tbb6detail2d112range_vectorINS1_13blocked_rangeImEELh8EED1Ev>
    3231:	48 89 d8             	mov    %rbx,%rax
    3234:	48 89 c7             	mov    %rax,%rdi
    3237:	e8 b4 f1 ff ff       	call   23f0 <_Unwind_Resume@plt>
    323c:	48 8b 45 e8          	mov    -0x18(%rbp),%rax
    3240:	64 48 2b 04 25 28 00 	sub    %fs:0x28,%rax
    3247:	00 00 
    3249:	74 05                	je     3250 <_ZN3tbb6detail2d122dynamic_grainsize_modeINS1_13adaptive_modeINS1_19auto_partition_typeEEEE12work_balanceINS1_9start_forINS1_13blocked_rangeImEEZ15square_elementsRSt6vectorIiSaIiEEEUlRKSA_E_KNS1_16auto_partitionerEEESA_EEvRT_RT0_RNS1_14execution_dataE+0x25c>
    324b:	e8 00 f1 ff ff       	call   2350 <__stack_chk_fail@plt>
    3250:	48 8b 5d f8          	mov    -0x8(%rbp),%rbx
    3254:	c9                   	leave  
    3255:	c3                   	ret    

0000000000003256 <_ZN3tbb6detail2d122small_object_allocator10deallocateINS1_9start_forINS1_13blocked_rangeImEEZ15square_elementsRSt6vectorIiSaIiEEEUlRKS6_E_KNS1_16auto_partitionerEEEEEvPT_RKNS1_14execution_dataE>:
    3256:	55                   	push   %rbp
    3257:	48 89 e5             	mov    %rsp,%rbp
    325a:	48 83 ec 20          	sub    $0x20,%rsp
    325e:	48 89 7d f8          	mov    %rdi,-0x8(%rbp)
    3262:	48 89 75 f0          	mov    %rsi,-0x10(%rbp)
    3266:	48 89 55 e8          	mov    %rdx,-0x18(%rbp)
    326a:	48 8b 45 f0          	mov    -0x10(%rbp),%rax
    326e:	48 89 c6             	mov    %rax,%rsi
    3271:	bf 04 00 00 00       	mov    $0x4,%edi
    3276:	e8 a3 09 00 00       	call   3c1e <_ZN3tbb6detail2d120call_itt_task_notifyENS1_11notify_typeEPv>
    327b:	48 8b 45 f8          	mov    -0x8(%rbp),%rax
    327f:	48 8b 00             	mov    (%rax),%rax
    3282:	48 8b 55 e8          	mov    -0x18(%rbp),%rdx
    3286:	48 8b 75 f0          	mov    -0x10(%rbp),%rsi
    328a:	48 89 d1             	mov    %rdx,%rcx
    328d:	ba 80 00 00 00       	mov    $0x80,%edx
    3292:	48 89 c7             	mov    %rax,%rdi
    3295:	e8 06 f0 ff ff       	call   22a0 <_ZN3tbb6detail2r110deallocateERNS0_2d117small_object_poolEPvmRKNS2_14execution_dataE@plt>
    329a:	90                   	nop
    329b:	c9                   	leave  
    329c:	c3                   	ret    
    329d:	90                   	nop

000000000000329e <_ZN3tbb6detail2d19start_forINS1_13blocked_rangeImEEZ15square_elementsRSt6vectorIiSaIiEEEUlRKS4_E_KNS1_16auto_partitionerEE15offer_work_implIJRSE_RNS0_2d05splitEEEEvRNS1_14execution_dataEDpOT_>:
    329e:	55                   	push   %rbp
    329f:	48 89 e5             	mov    %rsp,%rbp
    32a2:	53                   	push   %rbx
    32a3:	48 83 ec 48          	sub    $0x48,%rsp
    32a7:	48 89 7d c8          	mov    %rdi,-0x38(%rbp)
    32ab:	48 89 75 c0          	mov    %rsi,-0x40(%rbp)
    32af:	48 89 55 b8          	mov    %rdx,-0x48(%rbp)
    32b3:	48 89 4d b0          	mov    %rcx,-0x50(%rbp)
    32b7:	64 48 8b 04 25 28 00 	mov    %fs:0x28,%rax
    32be:	00 00 
    32c0:	48 89 45 e8          	mov    %rax,-0x18(%rbp)
    32c4:	31 c0                	xor    %eax,%eax
    32c6:	48 c7 45 d8 00 00 00 	movq   $0x0,-0x28(%rbp)
    32cd:	00 
    32ce:	48 8b 45 b0          	mov    -0x50(%rbp),%rax
    32d2:	48 89 c7             	mov    %rax,%rdi
    32d5:	e8 1c 32 00 00       	call   64f6 <_ZSt7forwardIRN3tbb6detail2d05splitEEOT_RNSt16remove_referenceIS5_E4typeE>
    32da:	48 89 c3             	mov    %rax,%rbx
    32dd:	48 8b 45 b8          	mov    -0x48(%rbp),%rax
    32e1:	48 89 c7             	mov    %rax,%rdi
    32e4:	e8 3c 01 00 00       	call   3425 <_ZSt7forwardIRN3tbb6detail2d19start_forINS2_13blocked_rangeImEEZ15square_elementsRSt6vectorIiSaIiEEEUlRKS5_E_KNS2_16auto_partitionerEEEEOT_RNSt16remove_referenceISH_E4typeE>
    32e9:	48 89 c2             	mov    %rax,%rdx
    32ec:	48 8d 4d d8          	lea    -0x28(%rbp),%rcx
    32f0:	48 8b 75 c0          	mov    -0x40(%rbp),%rsi
    32f4:	48 8d 45 d8          	lea    -0x28(%rbp),%rax
    32f8:	49 89 c8             	mov    %rcx,%r8
    32fb:	48 89 d9             	mov    %rbx,%rcx
    32fe:	48 89 c7             	mov    %rax,%rdi
    3301:	e8 2e 01 00 00       	call   3434 <_ZN3tbb6detail2d122small_object_allocator10new_objectINS1_9start_forINS1_13blocked_rangeImEEZ15square_elementsRSt6vectorIiSaIiEEEUlRKS6_E_KNS1_16auto_partitionerEEEJRSG_RNS0_2d05splitERS2_EEEPT_RNS1_14execution_dataEDpOT0_>
    3306:	48 89 45 e0          	mov    %rax,-0x20(%rbp)
    330a:	c7 45 d4 02 00 00 00 	movl   $0x2,-0x2c(%rbp)
    3311:	48 8b 45 c8          	mov    -0x38(%rbp),%rax
    3315:	48 8d 78 60          	lea    0x60(%rax),%rdi
    3319:	48 8d 4d d8          	lea    -0x28(%rbp),%rcx
    331d:	48 8d 55 d4          	lea    -0x2c(%rbp),%rdx
    3321:	48 8b 75 c0          	mov    -0x40(%rbp),%rsi
    3325:	48 8d 45 d8          	lea    -0x28(%rbp),%rax
    3329:	49 89 c8             	mov    %rcx,%r8
    332c:	48 89 d1             	mov    %rdx,%rcx
    332f:	48 89 fa             	mov    %rdi,%rdx
    3332:	48 89 c7             	mov    %rax,%rdi
    3335:	e8 ce 31 00 00       	call   6508 <_ZN3tbb6detail2d122small_object_allocator10new_objectINS1_9tree_nodeEJRPNS1_4nodeEiRS2_EEEPT_RNS1_14execution_dataEDpOT0_>
    333a:	48 8b 55 c8          	mov    -0x38(%rbp),%rdx
    333e:	48 89 42 60          	mov    %rax,0x60(%rdx)
    3342:	48 8b 45 c8          	mov    -0x38(%rbp),%rax
    3346:	48 8b 50 60          	mov    0x60(%rax),%rdx
    334a:	48 8b 45 e0          	mov    -0x20(%rbp),%rax
    334e:	48 89 50 60          	mov    %rdx,0x60(%rax)
    3352:	48 8b 55 c0          	mov    -0x40(%rbp),%rdx
    3356:	48 8b 45 e0          	mov    -0x20(%rbp),%rax
    335a:	48 89 d6             	mov    %rdx,%rsi
    335d:	48 89 c7             	mov    %rax,%rdi
    3360:	e8 95 01 00 00       	call   34fa <_ZN3tbb6detail2d19start_forINS1_13blocked_rangeImEEZ15square_elementsRSt6vectorIiSaIiEEEUlRKS4_E_KNS1_16auto_partitionerEE10spawn_selfERNS1_14execution_dataE>
    3365:	90                   	nop
    3366:	48 8b 45 e8          	mov    -0x18(%rbp),%rax
    336a:	64 48 2b 04 25 28 00 	sub    %fs:0x28,%rax
    3371:	00 00 
    3373:	74 05                	je     337a <_ZN3tbb6detail2d19start_forINS1_13blocked_rangeImEEZ15square_elementsRSt6vectorIiSaIiEEEUlRKS4_E_KNS1_16auto_partitionerEE15offer_work_implIJRSE_RNS0_2d05splitEEEEvRNS1_14execution_dataEDpOT_+0xdc>
    3375:	e8 d6 ef ff ff       	call   2350 <__stack_chk_fail@plt>
    337a:	48 8b 5d f8          	mov    -0x8(%rbp),%rbx
    337e:	c9                   	leave  
    337f:	c3                   	ret    

0000000000003380 <_ZN3tbb6detail2d19start_forINS1_13blocked_rangeImEEZ15square_elementsRSt6vectorIiSaIiEEEUlRKS4_E_KNS1_16auto_partitionerEE8run_bodyERS4_>:
    3380:	55                   	push   %rbp
    3381:	48 89 e5             	mov    %rsp,%rbp
    3384:	48 83 ec 10          	sub    $0x10,%rsp
    3388:	48 89 7d f8          	mov    %rdi,-0x8(%rbp)
    338c:	48 89 75 f0          	mov    %rsi,-0x10(%rbp)
    3390:	48 8b 45 f8          	mov    -0x8(%rbp),%rax
    3394:	48 8d 50 58          	lea    0x58(%rax),%rdx
    3398:	48 8b 45 f0          	mov    -0x10(%rbp),%rax
    339c:	48 89 c6             	mov    %rax,%rsi
    339f:	48 89 d7             	mov    %rdx,%rdi
    33a2:	e8 e3 f1 ff ff       	call   258a <_ZZ15square_elementsRSt6vectorIiSaIiEEENKUlRKN3tbb6detail2d113blocked_rangeImEEE_clES9_>
    33a7:	90                   	nop
    33a8:	c9                   	leave  
    33a9:	c3                   	ret    

00000000000033aa <_ZN3tbb6detail2d119auto_partition_type16check_for_demandINS1_9start_forINS1_13blocked_rangeImEEZ15square_elementsRSt6vectorIiSaIiEEEUlRKS6_E_KNS1_16auto_partitionerEEEEEbRT_>:
    33aa:	55                   	push   %rbp
    33ab:	48 89 e5             	mov    %rsp,%rbp
    33ae:	48 83 ec 10          	sub    $0x10,%rsp
    33b2:	48 89 7d f8          	mov    %rdi,-0x8(%rbp)
    33b6:	48 89 75 f0          	mov    %rsi,-0x10(%rbp)
    33ba:	48 8b 45 f0          	mov    -0x10(%rbp),%rax
    33be:	48 89 c7             	mov    %rax,%rdi
    33c1:	e8 72 01 00 00       	call   3538 <_ZN3tbb6detail2d19tree_node14is_peer_stolenINS1_9start_forINS1_13blocked_rangeImEEZ15square_elementsRSt6vectorIiSaIiEEEUlRKS6_E_KNS1_16auto_partitionerEEEEEbRT_>
    33c6:	84 c0                	test   %al,%al
    33c8:	74 19                	je     33e3 <_ZN3tbb6detail2d119auto_partition_type16check_for_demandINS1_9start_forINS1_13blocked_rangeImEEZ15square_elementsRSt6vectorIiSaIiEEEUlRKS6_E_KNS1_16auto_partitionerEEEEEbRT_+0x39>
    33ca:	48 8b 45 f8          	mov    -0x8(%rbp),%rax
    33ce:	0f b6 40 0c          	movzbl 0xc(%rax),%eax
    33d2:	8d 50 01             	lea    0x1(%rax),%edx
    33d5:	48 8b 45 f8          	mov    -0x8(%rbp),%rax
    33d9:	88 50 0c             	mov    %dl,0xc(%rax)
    33dc:	b8 01 00 00 00       	mov    $0x1,%eax
    33e1:	eb 05                	jmp    33e8 <_ZN3tbb6detail2d119auto_partition_type16check_for_demandINS1_9start_forINS1_13blocked_rangeImEEZ15square_elementsRSt6vectorIiSaIiEEEUlRKS6_E_KNS1_16auto_partitionerEEEEEbRT_+0x3e>
    33e3:	b8 00 00 00 00       	mov    $0x0,%eax
    33e8:	c9                   	leave  
    33e9:	c3                   	ret    

00000000000033ea <_ZN3tbb6detail2d19start_forINS1_13blocked_rangeImEEZ15square_elementsRSt6vectorIiSaIiEEEUlRKS4_E_KNS1_16auto_partitionerEE10offer_workESA_hRNS1_14execution_dataE>:
    33ea:	55                   	push   %rbp
    33eb:	48 89 e5             	mov    %rsp,%rbp
    33ee:	48 83 ec 20          	sub    $0x20,%rsp
    33f2:	48 89 7d f8          	mov    %rdi,-0x8(%rbp)
    33f6:	48 89 75 f0          	mov    %rsi,-0x10(%rbp)
    33fa:	89 d0                	mov    %edx,%eax
    33fc:	48 89 4d e0          	mov    %rcx,-0x20(%rbp)
    3400:	88 45 ec             	mov    %al,-0x14(%rbp)
    3403:	48 8d 7d ec          	lea    -0x14(%rbp),%rdi
    3407:	48 8b 4d f0          	mov    -0x10(%rbp),%rcx
    340b:	48 8b 55 f8          	mov    -0x8(%rbp),%rdx
    340f:	48 8b 75 e0          	mov    -0x20(%rbp),%rsi
    3413:	48 8b 45 f8          	mov    -0x8(%rbp),%rax
    3417:	49 89 f8             	mov    %rdi,%r8
    341a:	48 89 c7             	mov    %rax,%rdi
    341d:	e8 3e 01 00 00       	call   3560 <_ZN3tbb6detail2d19start_forINS1_13blocked_rangeImEEZ15square_elementsRSt6vectorIiSaIiEEEUlRKS4_E_KNS1_16auto_partitionerEE15offer_work_implIJRSE_SA_RhEEEvRNS1_14execution_dataEDpOT_>
    3422:	90                   	nop
    3423:	c9                   	leave  
    3424:	c3                   	ret    

0000000000003425 <_ZSt7forwardIRN3tbb6detail2d19start_forINS2_13blocked_rangeImEEZ15square_elementsRSt6vectorIiSaIiEEEUlRKS5_E_KNS2_16auto_partitionerEEEEOT_RNSt16remove_referenceISH_E4typeE>:
    3425:	55                   	push   %rbp
    3426:	48 89 e5             	mov    %rsp,%rbp
    3429:	48 89 7d f8          	mov    %rdi,-0x8(%rbp)
    342d:	48 8b 45 f8          	mov    -0x8(%rbp),%rax
    3431:	5d                   	pop    %rbp
    3432:	c3                   	ret    
    3433:	90                   	nop

0000000000003434 <_ZN3tbb6detail2d122small_object_allocator10new_objectINS1_9start_forINS1_13blocked_rangeImEEZ15square_elementsRSt6vectorIiSaIiEEEUlRKS6_E_KNS1_16auto_partitionerEEEJRSG_RNS0_2d05splitERS2_EEEPT_RNS1_14execution_dataEDpOT0_>:
    3434:	55                   	push   %rbp
    3435:	48 89 e5             	mov    %rsp,%rbp
    3438:	41 57                	push   %r15
    343a:	41 56                	push   %r14
    343c:	41 55                	push   %r13
    343e:	41 54                	push   %r12
    3440:	53                   	push   %rbx
    3441:	48 83 ec 48          	sub    $0x48,%rsp
    3445:	48 89 7d b8          	mov    %rdi,-0x48(%rbp)
    3449:	48 89 75 b0          	mov    %rsi,-0x50(%rbp)
    344d:	48 89 55 a8          	mov    %rdx,-0x58(%rbp)
    3451:	48 89 4d a0          	mov    %rcx,-0x60(%rbp)
    3455:	4c 89 45 98          	mov    %r8,-0x68(%rbp)
    3459:	48 8b 45 b8          	mov    -0x48(%rbp),%rax
    345d:	48 8b 55 b0          	mov    -0x50(%rbp),%rdx
    3461:	be 80 00 00 00       	mov    $0x80,%esi
    3466:	48 89 c7             	mov    %rax,%rdi
    3469:	e8 d2 ee ff ff       	call   2340 <_ZN3tbb6detail2r18allocateERPNS0_2d117small_object_poolEmRKNS2_14execution_dataE@plt>
    346e:	48 89 45 c0          	mov    %rax,-0x40(%rbp)
    3472:	48 8b 45 a8          	mov    -0x58(%rbp),%rax
    3476:	48 89 c7             	mov    %rax,%rdi
    3479:	e8 a7 ff ff ff       	call   3425 <_ZSt7forwardIRN3tbb6detail2d19start_forINS2_13blocked_rangeImEEZ15square_elementsRSt6vectorIiSaIiEEEUlRKS5_E_KNS2_16auto_partitionerEEEEOT_RNSt16remove_referenceISH_E4typeE>
    347e:	49 89 c5             	mov    %rax,%r13
    3481:	48 8b 45 a0          	mov    -0x60(%rbp),%rax
    3485:	48 89 c7             	mov    %rax,%rdi
    3488:	e8 69 30 00 00       	call   64f6 <_ZSt7forwardIRN3tbb6detail2d05splitEEOT_RNSt16remove_referenceIS5_E4typeE>
    348d:	49 89 c6             	mov    %rax,%r14
    3490:	48 8b 45 98          	mov    -0x68(%rbp),%rax
    3494:	48 89 c7             	mov    %rax,%rdi
    3497:	e8 c9 1f 00 00       	call   5465 <_ZSt7forwardIRN3tbb6detail2d122small_object_allocatorEEOT_RNSt16remove_referenceIS5_E4typeE>
    349c:	49 89 c7             	mov    %rax,%r15
    349f:	4c 8b 65 c0          	mov    -0x40(%rbp),%r12
    34a3:	4c 89 e6             	mov    %r12,%rsi
    34a6:	bf 80 00 00 00       	mov    $0x80,%edi
    34ab:	e8 4f 04 00 00       	call   38ff <_ZnwmPv>
    34b0:	48 89 c3             	mov    %rax,%rbx
    34b3:	4c 89 f9             	mov    %r15,%rcx
    34b6:	4c 89 f2             	mov    %r14,%rdx
    34b9:	4c 89 ee             	mov    %r13,%rsi
    34bc:	48 89 df             	mov    %rbx,%rdi
    34bf:	e8 9a 01 00 00       	call   365e <_ZN3tbb6detail2d19start_forINS1_13blocked_rangeImEEZ15square_elementsRSt6vectorIiSaIiEEEUlRKS4_E_KNS1_16auto_partitionerEEC1ERSE_RNS0_2d05splitERNS1_22small_object_allocatorE>
    34c4:	48 89 5d c8          	mov    %rbx,-0x38(%rbp)
    34c8:	48 8b 45 c8          	mov    -0x38(%rbp),%rax
    34cc:	eb 1d                	jmp    34eb <_ZN3tbb6detail2d122small_object_allocator10new_objectINS1_9start_forINS1_13blocked_rangeImEEZ15square_elementsRSt6vectorIiSaIiEEEUlRKS6_E_KNS1_16auto_partitionerEEEJRSG_RNS0_2d05splitERS2_EEEPT_RNS1_14execution_dataEDpOT0_+0xb7>
    34ce:	f3 0f 1e fa          	endbr64 
    34d2:	49 89 c5             	mov    %rax,%r13
    34d5:	4c 89 e6             	mov    %r12,%rsi
    34d8:	48 89 df             	mov    %rbx,%rdi
    34db:	e8 35 04 00 00       	call   3915 <_ZdlPvS_>
    34e0:	4c 89 e8             	mov    %r13,%rax
    34e3:	48 89 c7             	mov    %rax,%rdi
    34e6:	e8 05 ef ff ff       	call   23f0 <_Unwind_Resume@plt>
    34eb:	48 83 c4 48          	add    $0x48,%rsp
    34ef:	5b                   	pop    %rbx
    34f0:	41 5c                	pop    %r12
    34f2:	41 5d                	pop    %r13
    34f4:	41 5e                	pop    %r14
    34f6:	41 5f                	pop    %r15
    34f8:	5d                   	pop    %rbp
    34f9:	c3                   	ret    

00000000000034fa <_ZN3tbb6detail2d19start_forINS1_13blocked_rangeImEEZ15square_elementsRSt6vectorIiSaIiEEEUlRKS4_E_KNS1_16auto_partitionerEE10spawn_selfERNS1_14execution_dataE>:
    34fa:	55                   	push   %rbp
    34fb:	48 89 e5             	mov    %rsp,%rbp
    34fe:	53                   	push   %rbx
    34ff:	48 83 ec 18          	sub    $0x18,%rsp
    3503:	48 89 7d e8          	mov    %rdi,-0x18(%rbp)
    3507:	48 89 75 e0          	mov    %rsi,-0x20(%rbp)
    350b:	48 8b 45 e8          	mov    -0x18(%rbp),%rax
    350f:	48 8d 58 68          	lea    0x68(%rax),%rbx
    3513:	48 8b 45 e0          	mov    -0x20(%rbp),%rax
    3517:	48 89 c7             	mov    %rax,%rdi
    351a:	e8 33 08 00 00       	call   3d52 <_ZN3tbb6detail2d17contextERKNS1_14execution_dataE>
    351f:	48 89 c2             	mov    %rax,%rdx
    3522:	48 8b 45 e8          	mov    -0x18(%rbp),%rax
    3526:	48 89 c6             	mov    %rax,%rsi
    3529:	48 89 df             	mov    %rbx,%rdi
    352c:	e8 5d 14 00 00       	call   498e <_ZN3tbb6detail2d119auto_partition_type10spawn_taskERNS1_4taskERNS1_18task_group_contextE>
    3531:	90                   	nop
    3532:	48 8b 5d f8          	mov    -0x8(%rbp),%rbx
    3536:	c9                   	leave  
    3537:	c3                   	ret    

0000000000003538 <_ZN3tbb6detail2d19tree_node14is_peer_stolenINS1_9start_forINS1_13blocked_rangeImEEZ15square_elementsRSt6vectorIiSaIiEEEUlRKS6_E_KNS1_16auto_partitionerEEEEEbRT_>:
    3538:	55                   	push   %rbp
    3539:	48 89 e5             	mov    %rsp,%rbp
    353c:	48 83 ec 10          	sub    $0x10,%rsp
    3540:	48 89 7d f8          	mov    %rdi,-0x8(%rbp)
    3544:	48 8b 45 f8          	mov    -0x8(%rbp),%rax
    3548:	48 8b 40 60          	mov    0x60(%rax),%rax
    354c:	48 83 c0 18          	add    $0x18,%rax
    3550:	be 00 00 00 00       	mov    $0x0,%esi
    3555:	48 89 c7             	mov    %rax,%rdi
    3558:	e8 23 05 00 00       	call   3a80 <_ZNKSt6atomicIbE4loadESt12memory_order>
    355d:	c9                   	leave  
    355e:	c3                   	ret    
    355f:	90                   	nop

0000000000003560 <_ZN3tbb6detail2d19start_forINS1_13blocked_rangeImEEZ15square_elementsRSt6vectorIiSaIiEEEUlRKS4_E_KNS1_16auto_partitionerEE15offer_work_implIJRSE_SA_RhEEEvRNS1_14execution_dataEDpOT_>:
    3560:	55                   	push   %rbp
    3561:	48 89 e5             	mov    %rsp,%rbp
    3564:	41 54                	push   %r12
    3566:	53                   	push   %rbx
    3567:	48 83 ec 50          	sub    $0x50,%rsp
    356b:	48 89 7d c8          	mov    %rdi,-0x38(%rbp)
    356f:	48 89 75 c0          	mov    %rsi,-0x40(%rbp)
    3573:	48 89 55 b8          	mov    %rdx,-0x48(%rbp)
    3577:	48 89 4d b0          	mov    %rcx,-0x50(%rbp)
    357b:	4c 89 45 a8          	mov    %r8,-0x58(%rbp)
    357f:	64 48 8b 04 25 28 00 	mov    %fs:0x28,%rax
    3586:	00 00 
    3588:	48 89 45 e8          	mov    %rax,-0x18(%rbp)
    358c:	31 c0                	xor    %eax,%eax
    358e:	48 c7 45 d8 00 00 00 	movq   $0x0,-0x28(%rbp)
    3595:	00 
    3596:	48 8b 45 a8          	mov    -0x58(%rbp),%rax
    359a:	48 89 c7             	mov    %rax,%rdi
    359d:	e8 55 31 00 00       	call   66f7 <_ZSt7forwardIRhEOT_RNSt16remove_referenceIS1_E4typeE>
    35a2:	49 89 c4             	mov    %rax,%r12
    35a5:	48 8b 45 b0          	mov    -0x50(%rbp),%rax
    35a9:	48 89 c7             	mov    %rax,%rdi
    35ac:	e8 59 26 00 00       	call   5c0a <_ZSt7forwardIRKN3tbb6detail2d113blocked_rangeImEEEOT_RNSt16remove_referenceIS7_E4typeE>
    35b1:	48 89 c3             	mov    %rax,%rbx
    35b4:	48 8b 45 b8          	mov    -0x48(%rbp),%rax
    35b8:	48 89 c7             	mov    %rax,%rdi
    35bb:	e8 65 fe ff ff       	call   3425 <_ZSt7forwardIRN3tbb6detail2d19start_forINS2_13blocked_rangeImEEZ15square_elementsRSt6vectorIiSaIiEEEUlRKS5_E_KNS2_16auto_partitionerEEEEOT_RNSt16remove_referenceISH_E4typeE>
    35c0:	48 89 c2             	mov    %rax,%rdx
    35c3:	48 8d 4d d8          	lea    -0x28(%rbp),%rcx
    35c7:	48 8b 75 c0          	mov    -0x40(%rbp),%rsi
    35cb:	48 8d 45 d8          	lea    -0x28(%rbp),%rax
    35cf:	49 89 c9             	mov    %rcx,%r9
    35d2:	4d 89 e0             	mov    %r12,%r8
    35d5:	48 89 d9             	mov    %rbx,%rcx
    35d8:	48 89 c7             	mov    %rax,%rdi
    35db:	e8 48 01 00 00       	call   3728 <_ZN3tbb6detail2d122small_object_allocator10new_objectINS1_9start_forINS1_13blocked_rangeImEEZ15square_elementsRSt6vectorIiSaIiEEEUlRKS6_E_KNS1_16auto_partitionerEEEJRSG_SC_RhRS2_EEEPT_RNS1_14execution_dataEDpOT0_>
    35e0:	48 89 45 e0          	mov    %rax,-0x20(%rbp)
    35e4:	c7 45 d4 02 00 00 00 	movl   $0x2,-0x2c(%rbp)
    35eb:	48 8b 45 c8          	mov    -0x38(%rbp),%rax
    35ef:	48 8d 78 60          	lea    0x60(%rax),%rdi
    35f3:	48 8d 4d d8          	lea    -0x28(%rbp),%rcx
    35f7:	48 8d 55 d4          	lea    -0x2c(%rbp),%rdx
    35fb:	48 8b 75 c0          	mov    -0x40(%rbp),%rsi
    35ff:	48 8d 45 d8          	lea    -0x28(%rbp),%rax
    3603:	49 89 c8             	mov    %rcx,%r8
    3606:	48 89 d1             	mov    %rdx,%rcx
    3609:	48 89 fa             	mov    %rdi,%rdx
    360c:	48 89 c7             	mov    %rax,%rdi
    360f:	e8 f4 2e 00 00       	call   6508 <_ZN3tbb6detail2d122small_object_allocator10new_objectINS1_9tree_nodeEJRPNS1_4nodeEiRS2_EEEPT_RNS1_14execution_dataEDpOT0_>
    3614:	48 8b 55 c8          	mov    -0x38(%rbp),%rdx
    3618:	48 89 42 60          	mov    %rax,0x60(%rdx)
    361c:	48 8b 45 c8          	mov    -0x38(%rbp),%rax
    3620:	48 8b 50 60          	mov    0x60(%rax),%rdx
    3624:	48 8b 45 e0          	mov    -0x20(%rbp),%rax
    3628:	48 89 50 60          	mov    %rdx,0x60(%rax)
    362c:	48 8b 55 c0          	mov    -0x40(%rbp),%rdx
    3630:	48 8b 45 e0          	mov    -0x20(%rbp),%rax
    3634:	48 89 d6             	mov    %rdx,%rsi
    3637:	48 89 c7             	mov    %rax,%rdi
    363a:	e8 bb fe ff ff       	call   34fa <_ZN3tbb6detail2d19start_forINS1_13blocked_rangeImEEZ15square_elementsRSt6vectorIiSaIiEEEUlRKS4_E_KNS1_16auto_partitionerEE10spawn_selfERNS1_14execution_dataE>
    363f:	90                   	nop
    3640:	48 8b 45 e8          	mov    -0x18(%rbp),%rax
    3644:	64 48 2b 04 25 28 00 	sub    %fs:0x28,%rax
    364b:	00 00 
    364d:	74 05                	je     3654 <_ZN3tbb6detail2d19start_forINS1_13blocked_rangeImEEZ15square_elementsRSt6vectorIiSaIiEEEUlRKS4_E_KNS1_16auto_partitionerEE15offer_work_implIJRSE_SA_RhEEEvRNS1_14execution_dataEDpOT_+0xf4>
    364f:	e8 fc ec ff ff       	call   2350 <__stack_chk_fail@plt>
    3654:	48 83 c4 50          	add    $0x50,%rsp
    3658:	5b                   	pop    %rbx
    3659:	41 5c                	pop    %r12
    365b:	5d                   	pop    %rbp
    365c:	c3                   	ret    
    365d:	90                   	nop

000000000000365e <_ZN3tbb6detail2d19start_forINS1_13blocked_rangeImEEZ15square_elementsRSt6vectorIiSaIiEEEUlRKS4_E_KNS1_16auto_partitionerEEC1ERSE_RNS0_2d05splitERNS1_22small_object_allocatorE>:
    365e:	55                   	push   %rbp
    365f:	48 89 e5             	mov    %rsp,%rbp
    3662:	53                   	push   %rbx
    3663:	48 83 ec 28          	sub    $0x28,%rsp
    3667:	48 89 7d e8          	mov    %rdi,-0x18(%rbp)
    366b:	48 89 75 e0          	mov    %rsi,-0x20(%rbp)
    366f:	48 89 55 d8          	mov    %rdx,-0x28(%rbp)
    3673:	48 89 4d d0          	mov    %rcx,-0x30(%rbp)
    3677:	48 8b 45 e8          	mov    -0x18(%rbp),%rax
    367b:	48 89 c7             	mov    %rax,%rdi
    367e:	e8 7d 08 00 00       	call   3f00 <_ZN3tbb6detail2d14taskC1Ev>
    3683:	48 8d 15 d6 83 00 00 	lea    0x83d6(%rip),%rdx        # ba60 <_ZTVN3tbb6detail2d19start_forINS1_13blocked_rangeImEEZ15square_elementsRSt6vectorIiSaIiEEEUlRKS4_E_KNS1_16auto_partitionerEEE+0x10>
    368a:	48 8b 45 e8          	mov    -0x18(%rbp),%rax
    368e:	48 89 10             	mov    %rdx,(%rax)
    3691:	48 8b 45 e8          	mov    -0x18(%rbp),%rax
    3695:	48 8d 58 40          	lea    0x40(%rax),%rbx
    3699:	48 8b 45 d8          	mov    -0x28(%rbp),%rax
    369d:	48 89 c7             	mov    %rax,%rdi
    36a0:	e8 64 30 00 00       	call   6709 <_ZN3tbb6detail2d022get_range_split_objectINS0_2d113blocked_rangeImEENS1_5splitEEEDTclsrNS1_27range_split_object_providerIT_vEE3getfp_EERT0_>
    36a5:	48 8b 45 e0          	mov    -0x20(%rbp),%rax
    36a9:	48 83 c0 40          	add    $0x40,%rax
    36ad:	48 89 c6             	mov    %rax,%rsi
    36b0:	48 89 df             	mov    %rbx,%rdi
    36b3:	e8 16 2f 00 00       	call   65ce <_ZN3tbb6detail2d113blocked_rangeImEC1ERS3_NS0_2d05splitE>
    36b8:	48 8b 45 e8          	mov    -0x18(%rbp),%rax
    36bc:	48 8d 50 58          	lea    0x58(%rax),%rdx
    36c0:	48 8b 45 e0          	mov    -0x20(%rbp),%rax
    36c4:	48 8b 40 58          	mov    0x58(%rax),%rax
    36c8:	48 89 02             	mov    %rax,(%rdx)
    36cb:	48 8b 45 e8          	mov    -0x18(%rbp),%rax
    36cf:	48 c7 40 60 00 00 00 	movq   $0x0,0x60(%rax)
    36d6:	00 
    36d7:	48 8b 45 e8          	mov    -0x18(%rbp),%rax
    36db:	48 83 c0 68          	add    $0x68,%rax
    36df:	48 8b 55 e0          	mov    -0x20(%rbp),%rdx
    36e3:	48 83 c2 68          	add    $0x68,%rdx
    36e7:	48 89 d6             	mov    %rdx,%rsi
    36ea:	48 89 c7             	mov    %rax,%rdi
    36ed:	e8 0e 12 00 00       	call   4900 <_ZN3tbb6detail2d119auto_partition_typeC1ERS2_NS0_2d05splitE>
    36f2:	48 8b 45 e8          	mov    -0x18(%rbp),%rax
    36f6:	48 8b 55 d0          	mov    -0x30(%rbp),%rdx
    36fa:	48 8b 12             	mov    (%rdx),%rdx
    36fd:	48 89 50 78          	mov    %rdx,0x78(%rax)
    3701:	eb 1e                	jmp    3721 <_ZN3tbb6detail2d19start_forINS1_13blocked_rangeImEEZ15square_elementsRSt6vectorIiSaIiEEEUlRKS4_E_KNS1_16auto_partitionerEEC1ERSE_RNS0_2d05splitERNS1_22small_object_allocatorE+0xc3>
    3703:	f3 0f 1e fa          	endbr64 
    3707:	48 89 c3             	mov    %rax,%rbx
    370a:	48 8b 45 e8          	mov    -0x18(%rbp),%rax
    370e:	48 89 c7             	mov    %rax,%rdi
    3711:	e8 50 08 00 00       	call   3f66 <_ZN3tbb6detail2d14taskD1Ev>
    3716:	48 89 d8             	mov    %rbx,%rax
    3719:	48 89 c7             	mov    %rax,%rdi
    371c:	e8 cf ec ff ff       	call   23f0 <_Unwind_Resume@plt>
    3721:	48 8b 5d f8          	mov    -0x8(%rbp),%rbx
    3725:	c9                   	leave  
    3726:	c3                   	ret    
    3727:	90                   	nop

0000000000003728 <_ZN3tbb6detail2d122small_object_allocator10new_objectINS1_9start_forINS1_13blocked_rangeImEEZ15square_elementsRSt6vectorIiSaIiEEEUlRKS6_E_KNS1_16auto_partitionerEEEJRSG_SC_RhRS2_EEEPT_RNS1_14execution_dataEDpOT0_>:
    3728:	55                   	push   %rbp
    3729:	48 89 e5             	mov    %rsp,%rbp
    372c:	41 57                	push   %r15
    372e:	41 56                	push   %r14
    3730:	41 55                	push   %r13
    3732:	41 54                	push   %r12
    3734:	53                   	push   %rbx
    3735:	48 83 ec 58          	sub    $0x58,%rsp
    3739:	48 89 7d b8          	mov    %rdi,-0x48(%rbp)
    373d:	48 89 75 b0          	mov    %rsi,-0x50(%rbp)
    3741:	48 89 55 a8          	mov    %rdx,-0x58(%rbp)
    3745:	48 89 4d a0          	mov    %rcx,-0x60(%rbp)
    3749:	4c 89 45 98          	mov    %r8,-0x68(%rbp)
    374d:	4c 89 4d 90          	mov    %r9,-0x70(%rbp)
    3751:	48 8b 45 b8          	mov    -0x48(%rbp),%rax
    3755:	48 8b 55 b0          	mov    -0x50(%rbp),%rdx
    3759:	be 80 00 00 00       	mov    $0x80,%esi
    375e:	48 89 c7             	mov    %rax,%rdi
    3761:	e8 da eb ff ff       	call   2340 <_ZN3tbb6detail2r18allocateERPNS0_2d117small_object_poolEmRKNS2_14execution_dataE@plt>
    3766:	48 89 45 c0          	mov    %rax,-0x40(%rbp)
    376a:	48 8b 45 a8          	mov    -0x58(%rbp),%rax
    376e:	48 89 c7             	mov    %rax,%rdi
    3771:	e8 af fc ff ff       	call   3425 <_ZSt7forwardIRN3tbb6detail2d19start_forINS2_13blocked_rangeImEEZ15square_elementsRSt6vectorIiSaIiEEEUlRKS5_E_KNS2_16auto_partitionerEEEEOT_RNSt16remove_referenceISH_E4typeE>
    3776:	49 89 c6             	mov    %rax,%r14
    3779:	48 8b 45 a0          	mov    -0x60(%rbp),%rax
    377d:	48 89 c7             	mov    %rax,%rdi
    3780:	e8 85 24 00 00       	call   5c0a <_ZSt7forwardIRKN3tbb6detail2d113blocked_rangeImEEEOT_RNSt16remove_referenceIS7_E4typeE>
    3785:	49 89 c7             	mov    %rax,%r15
    3788:	48 8b 45 98          	mov    -0x68(%rbp),%rax
    378c:	48 89 c7             	mov    %rax,%rdi
    378f:	e8 63 2f 00 00       	call   66f7 <_ZSt7forwardIRhEOT_RNSt16remove_referenceIS1_E4typeE>
    3794:	0f b6 00             	movzbl (%rax),%eax
    3797:	44 0f b6 e8          	movzbl %al,%r13d
    379b:	48 8b 45 90          	mov    -0x70(%rbp),%rax
    379f:	48 89 c7             	mov    %rax,%rdi
    37a2:	e8 be 1c 00 00       	call   5465 <_ZSt7forwardIRN3tbb6detail2d122small_object_allocatorEEOT_RNSt16remove_referenceIS5_E4typeE>
    37a7:	48 89 45 88          	mov    %rax,-0x78(%rbp)
    37ab:	4c 8b 65 c0          	mov    -0x40(%rbp),%r12
    37af:	4c 89 e6             	mov    %r12,%rsi
    37b2:	bf 80 00 00 00       	mov    $0x80,%edi
    37b7:	e8 43 01 00 00       	call   38ff <_ZnwmPv>
    37bc:	48 89 c3             	mov    %rax,%rbx
    37bf:	4c 8b 45 88          	mov    -0x78(%rbp),%r8
    37c3:	44 89 e9             	mov    %r13d,%ecx
    37c6:	4c 89 fa             	mov    %r15,%rdx
    37c9:	4c 89 f6             	mov    %r14,%rsi
    37cc:	48 89 df             	mov    %rbx,%rdi
    37cf:	e8 36 00 00 00       	call   380a <_ZN3tbb6detail2d19start_forINS1_13blocked_rangeImEEZ15square_elementsRSt6vectorIiSaIiEEEUlRKS4_E_KNS1_16auto_partitionerEEC1ERSE_SA_hRNS1_22small_object_allocatorE>
    37d4:	48 89 5d c8          	mov    %rbx,-0x38(%rbp)
    37d8:	48 8b 45 c8          	mov    -0x38(%rbp),%rax
    37dc:	eb 1d                	jmp    37fb <_ZN3tbb6detail2d122small_object_allocator10new_objectINS1_9start_forINS1_13blocked_rangeImEEZ15square_elementsRSt6vectorIiSaIiEEEUlRKS6_E_KNS1_16auto_partitionerEEEJRSG_SC_RhRS2_EEEPT_RNS1_14execution_dataEDpOT0_+0xd3>
    37de:	f3 0f 1e fa          	endbr64 
    37e2:	49 89 c5             	mov    %rax,%r13
    37e5:	4c 89 e6             	mov    %r12,%rsi
    37e8:	48 89 df             	mov    %rbx,%rdi
    37eb:	e8 25 01 00 00       	call   3915 <_ZdlPvS_>
    37f0:	4c 89 e8             	mov    %r13,%rax
    37f3:	48 89 c7             	mov    %rax,%rdi
    37f6:	e8 f5 eb ff ff       	call   23f0 <_Unwind_Resume@plt>
    37fb:	48 83 c4 58          	add    $0x58,%rsp
    37ff:	5b                   	pop    %rbx
    3800:	41 5c                	pop    %r12
    3802:	41 5d                	pop    %r13
    3804:	41 5e                	pop    %r14
    3806:	41 5f                	pop    %r15
    3808:	5d                   	pop    %rbp
    3809:	c3                   	ret    

000000000000380a <_ZN3tbb6detail2d19start_forINS1_13blocked_rangeImEEZ15square_elementsRSt6vectorIiSaIiEEEUlRKS4_E_KNS1_16auto_partitionerEEC1ERSE_SA_hRNS1_22small_object_allocatorE>:
    380a:	55                   	push   %rbp
    380b:	48 89 e5             	mov    %rsp,%rbp
    380e:	53                   	push   %rbx
    380f:	48 83 ec 38          	sub    $0x38,%rsp
    3813:	48 89 7d e8          	mov    %rdi,-0x18(%rbp)
    3817:	48 89 75 e0          	mov    %rsi,-0x20(%rbp)
    381b:	48 89 55 d8          	mov    %rdx,-0x28(%rbp)
    381f:	89 c8                	mov    %ecx,%eax
    3821:	4c 89 45 c8          	mov    %r8,-0x38(%rbp)
    3825:	88 45 d4             	mov    %al,-0x2c(%rbp)
    3828:	48 8b 45 e8          	mov    -0x18(%rbp),%rax
    382c:	48 89 c7             	mov    %rax,%rdi
    382f:	e8 cc 06 00 00       	call   3f00 <_ZN3tbb6detail2d14taskC1Ev>
    3834:	48 8d 15 25 82 00 00 	lea    0x8225(%rip),%rdx        # ba60 <_ZTVN3tbb6detail2d19start_forINS1_13blocked_rangeImEEZ15square_elementsRSt6vectorIiSaIiEEEUlRKS4_E_KNS1_16auto_partitionerEEE+0x10>
    383b:	48 8b 45 e8          	mov    -0x18(%rbp),%rax
    383f:	48 89 10             	mov    %rdx,(%rax)
    3842:	48 8b 4d e8          	mov    -0x18(%rbp),%rcx
    3846:	48 8b 75 d8          	mov    -0x28(%rbp),%rsi
    384a:	48 8b 06             	mov    (%rsi),%rax
    384d:	48 8b 56 08          	mov    0x8(%rsi),%rdx
    3851:	48 89 41 40          	mov    %rax,0x40(%rcx)
    3855:	48 89 51 48          	mov    %rdx,0x48(%rcx)
    3859:	48 8b 46 10          	mov    0x10(%rsi),%rax
    385d:	48 89 41 50          	mov    %rax,0x50(%rcx)
    3861:	48 8b 45 e8          	mov    -0x18(%rbp),%rax
    3865:	48 8d 50 58          	lea    0x58(%rax),%rdx
    3869:	48 8b 45 e0          	mov    -0x20(%rbp),%rax
    386d:	48 8b 40 58          	mov    0x58(%rax),%rax
    3871:	48 89 02             	mov    %rax,(%rdx)
    3874:	48 8b 45 e8          	mov    -0x18(%rbp),%rax
    3878:	48 c7 40 60 00 00 00 	movq   $0x0,0x60(%rax)
    387f:	00 
    3880:	48 8b 45 e8          	mov    -0x18(%rbp),%rax
    3884:	48 83 c0 68          	add    $0x68,%rax
    3888:	48 8b 55 e0          	mov    -0x20(%rbp),%rdx
    388c:	48 83 c2 68          	add    $0x68,%rdx
    3890:	48 89 d6             	mov    %rdx,%rsi
    3893:	48 89 c7             	mov    %rax,%rdi
    3896:	e8 65 10 00 00       	call   4900 <_ZN3tbb6detail2d119auto_partition_typeC1ERS2_NS0_2d05splitE>
    389b:	48 8b 45 e8          	mov    -0x18(%rbp),%rax
    389f:	48 8b 55 c8          	mov    -0x38(%rbp),%rdx
    38a3:	48 8b 12             	mov    (%rdx),%rdx
    38a6:	48 89 50 78          	mov    %rdx,0x78(%rax)
    38aa:	48 8b 45 e8          	mov    -0x18(%rbp),%rax
    38ae:	48 8d 50 68          	lea    0x68(%rax),%rdx
    38b2:	0f b6 45 d4          	movzbl -0x2c(%rbp),%eax
    38b6:	89 c6                	mov    %eax,%esi
    38b8:	48 89 d7             	mov    %rdx,%rdi
    38bb:	e8 7a 2e 00 00       	call   673a <_ZN3tbb6detail2d122dynamic_grainsize_modeINS1_13adaptive_modeINS1_19auto_partition_typeEEEE11align_depthEh>
    38c0:	eb 1e                	jmp    38e0 <_ZN3tbb6detail2d19start_forINS1_13blocked_rangeImEEZ15square_elementsRSt6vectorIiSaIiEEEUlRKS4_E_KNS1_16auto_partitionerEEC1ERSE_SA_hRNS1_22small_object_allocatorE+0xd6>
    38c2:	f3 0f 1e fa          	endbr64 
    38c6:	48 89 c3             	mov    %rax,%rbx
    38c9:	48 8b 45 e8          	mov    -0x18(%rbp),%rax
    38cd:	48 89 c7             	mov    %rax,%rdi
    38d0:	e8 91 06 00 00       	call   3f66 <_ZN3tbb6detail2d14taskD1Ev>
    38d5:	48 89 d8             	mov    %rbx,%rax
    38d8:	48 89 c7             	mov    %rax,%rdi
    38db:	e8 10 eb ff ff       	call   23f0 <_Unwind_Resume@plt>
    38e0:	48 8b 5d f8          	mov    -0x8(%rbp),%rbx
    38e4:	c9                   	leave  
    38e5:	c3                   	ret    

00000000000038e6 <_GLOBAL__sub_I__Z15square_elementsRSt6vectorIiSaIiEE>:
    38e6:	f3 0f 1e fa          	endbr64 
    38ea:	55                   	push   %rbp
    38eb:	48 89 e5             	mov    %rsp,%rbp
    38ee:	be ff ff 00 00       	mov    $0xffff,%esi
    38f3:	bf 01 00 00 00       	mov    $0x1,%edi
    38f8:	e8 23 f3 ff ff       	call   2c20 <_Z41__static_initialization_and_destruction_0ii>
    38fd:	5d                   	pop    %rbp
    38fe:	c3                   	ret    

00000000000038ff <_ZnwmPv>:
    38ff:	f3 0f 1e fa          	endbr64 
    3903:	55                   	push   %rbp
    3904:	48 89 e5             	mov    %rsp,%rbp
    3907:	48 89 7d f8          	mov    %rdi,-0x8(%rbp)
    390b:	48 89 75 f0          	mov    %rsi,-0x10(%rbp)
    390f:	48 8b 45 f0          	mov    -0x10(%rbp),%rax
    3913:	5d                   	pop    %rbp
    3914:	c3                   	ret    

0000000000003915 <_ZdlPvS_>:
    3915:	f3 0f 1e fa          	endbr64 
    3919:	55                   	push   %rbp
    391a:	48 89 e5             	mov    %rsp,%rbp
    391d:	48 89 7d f8          	mov    %rdi,-0x8(%rbp)
    3921:	48 89 75 f0          	mov    %rsi,-0x10(%rbp)
    3925:	90                   	nop
    3926:	5d                   	pop    %rbp
    3927:	c3                   	ret    

0000000000003928 <_ZSt17__size_to_integerm>:
    3928:	f3 0f 1e fa          	endbr64 
    392c:	55                   	push   %rbp
    392d:	48 89 e5             	mov    %rsp,%rbp
    3930:	48 89 7d f8          	mov    %rdi,-0x8(%rbp)
    3934:	48 8b 45 f8          	mov    -0x8(%rbp),%rax
    3938:	5d                   	pop    %rbp
    3939:	c3                   	ret    

000000000000393a <_ZL15__gthread_yieldv>:
    393a:	55                   	push   %rbp
    393b:	48 89 e5             	mov    %rsp,%rbp
    393e:	e8 4d ea ff ff       	call   2390 <sched_yield@plt>
    3943:	5d                   	pop    %rbp
    3944:	c3                   	ret    

0000000000003945 <_ZStorSt12memory_orderSt23__memory_order_modifier>:
    3945:	f3 0f 1e fa          	endbr64 
    3949:	55                   	push   %rbp
    394a:	48 89 e5             	mov    %rsp,%rbp
    394d:	89 7d fc             	mov    %edi,-0x4(%rbp)
    3950:	89 75 f8             	mov    %esi,-0x8(%rbp)
    3953:	8b 55 fc             	mov    -0x4(%rbp),%edx
    3956:	8b 45 f8             	mov    -0x8(%rbp),%eax
    3959:	09 d0                	or     %edx,%eax
    395b:	5d                   	pop    %rbp
    395c:	c3                   	ret    

000000000000395d <_ZStanSt12memory_orderSt23__memory_order_modifier>:
    395d:	f3 0f 1e fa          	endbr64 
    3961:	55                   	push   %rbp
    3962:	48 89 e5             	mov    %rsp,%rbp
    3965:	89 7d fc             	mov    %edi,-0x4(%rbp)
    3968:	89 75 f8             	mov    %esi,-0x8(%rbp)
    396b:	8b 55 fc             	mov    -0x4(%rbp),%edx
    396e:	8b 45 f8             	mov    -0x8(%rbp),%eax
    3971:	21 d0                	and    %edx,%eax
    3973:	5d                   	pop    %rbp
    3974:	c3                   	ret    

0000000000003975 <_ZSt24__cmpexch_failure_order2St12memory_order>:
    3975:	f3 0f 1e fa          	endbr64 
    3979:	55                   	push   %rbp
    397a:	48 89 e5             	mov    %rsp,%rbp
    397d:	89 7d fc             	mov    %edi,-0x4(%rbp)
    3980:	83 7d fc 04          	cmpl   $0x4,-0x4(%rbp)
    3984:	74 12                	je     3998 <_ZSt24__cmpexch_failure_order2St12memory_order+0x23>
    3986:	83 7d fc 03          	cmpl   $0x3,-0x4(%rbp)
    398a:	74 05                	je     3991 <_ZSt24__cmpexch_failure_order2St12memory_order+0x1c>
    398c:	8b 45 fc             	mov    -0x4(%rbp),%eax
    398f:	eb 0c                	jmp    399d <_ZSt24__cmpexch_failure_order2St12memory_order+0x28>
    3991:	b8 00 00 00 00       	mov    $0x0,%eax
    3996:	eb 05                	jmp    399d <_ZSt24__cmpexch_failure_order2St12memory_order+0x28>
    3998:	b8 02 00 00 00       	mov    $0x2,%eax
    399d:	5d                   	pop    %rbp
    399e:	c3                   	ret    

000000000000399f <_ZSt23__cmpexch_failure_orderSt12memory_order>:
    399f:	f3 0f 1e fa          	endbr64 
    39a3:	55                   	push   %rbp
    39a4:	48 89 e5             	mov    %rsp,%rbp
    39a7:	53                   	push   %rbx
    39a8:	48 83 ec 18          	sub    $0x18,%rsp
    39ac:	89 7d ec             	mov    %edi,-0x14(%rbp)
    39af:	8b 45 ec             	mov    -0x14(%rbp),%eax
    39b2:	be 00 00 ff ff       	mov    $0xffff0000,%esi
    39b7:	89 c7                	mov    %eax,%edi
    39b9:	e8 9f ff ff ff       	call   395d <_ZStanSt12memory_orderSt23__memory_order_modifier>
    39be:	89 c3                	mov    %eax,%ebx
    39c0:	8b 45 ec             	mov    -0x14(%rbp),%eax
    39c3:	be ff ff 00 00       	mov    $0xffff,%esi
    39c8:	89 c7                	mov    %eax,%edi
    39ca:	e8 8e ff ff ff       	call   395d <_ZStanSt12memory_orderSt23__memory_order_modifier>
    39cf:	89 c7                	mov    %eax,%edi
    39d1:	e8 9f ff ff ff       	call   3975 <_ZSt24__cmpexch_failure_order2St12memory_order>
    39d6:	89 de                	mov    %ebx,%esi
    39d8:	89 c7                	mov    %eax,%edi
    39da:	e8 66 ff ff ff       	call   3945 <_ZStorSt12memory_orderSt23__memory_order_modifier>
    39df:	48 8b 5d f8          	mov    -0x8(%rbp),%rbx
    39e3:	c9                   	leave  
    39e4:	c3                   	ret    
    39e5:	90                   	nop

00000000000039e6 <_ZNSt13__atomic_baseIbEC1Eb>:
    39e6:	f3 0f 1e fa          	endbr64 
    39ea:	55                   	push   %rbp
    39eb:	48 89 e5             	mov    %rsp,%rbp
    39ee:	48 89 7d f8          	mov    %rdi,-0x8(%rbp)
    39f2:	89 f0                	mov    %esi,%eax
    39f4:	88 45 f4             	mov    %al,-0xc(%rbp)
    39f7:	48 8b 45 f8          	mov    -0x8(%rbp),%rax
    39fb:	0f b6 55 f4          	movzbl -0xc(%rbp),%edx
    39ff:	88 10                	mov    %dl,(%rax)
    3a01:	90                   	nop
    3a02:	5d                   	pop    %rbp
    3a03:	c3                   	ret    

0000000000003a04 <_ZNSt6atomicIbEC1Eb>:
    3a04:	f3 0f 1e fa          	endbr64 
    3a08:	55                   	push   %rbp
    3a09:	48 89 e5             	mov    %rsp,%rbp
    3a0c:	48 83 ec 10          	sub    $0x10,%rsp
    3a10:	48 89 7d f8          	mov    %rdi,-0x8(%rbp)
    3a14:	89 f0                	mov    %esi,%eax
    3a16:	88 45 f4             	mov    %al,-0xc(%rbp)
    3a19:	48 8b 45 f8          	mov    -0x8(%rbp),%rax
    3a1d:	0f b6 55 f4          	movzbl -0xc(%rbp),%edx
    3a21:	89 d6                	mov    %edx,%esi
    3a23:	48 89 c7             	mov    %rax,%rdi
    3a26:	e8 bb ff ff ff       	call   39e6 <_ZNSt13__atomic_baseIbEC1Eb>
    3a2b:	90                   	nop
    3a2c:	c9                   	leave  
    3a2d:	c3                   	ret    

0000000000003a2e <_ZNSt6atomicIbE5storeEbSt12memory_order>:
    3a2e:	f3 0f 1e fa          	endbr64 
    3a32:	55                   	push   %rbp
    3a33:	48 89 e5             	mov    %rsp,%rbp
    3a36:	48 83 ec 30          	sub    $0x30,%rsp
    3a3a:	48 89 7d d8          	mov    %rdi,-0x28(%rbp)
    3a3e:	89 f0                	mov    %esi,%eax
    3a40:	89 55 d0             	mov    %edx,-0x30(%rbp)
    3a43:	88 45 d4             	mov    %al,-0x2c(%rbp)
    3a46:	48 8b 55 d8          	mov    -0x28(%rbp),%rdx
    3a4a:	0f b6 45 d4          	movzbl -0x2c(%rbp),%eax
    3a4e:	48 89 55 f8          	mov    %rdx,-0x8(%rbp)
    3a52:	88 45 ef             	mov    %al,-0x11(%rbp)
    3a55:	80 65 ef 01          	andb   $0x1,-0x11(%rbp)
    3a59:	8b 45 d0             	mov    -0x30(%rbp),%eax
    3a5c:	89 45 f0             	mov    %eax,-0x10(%rbp)
    3a5f:	8b 45 f0             	mov    -0x10(%rbp),%eax
    3a62:	be ff ff 00 00       	mov    $0xffff,%esi
    3a67:	89 c7                	mov    %eax,%edi
    3a69:	e8 ef fe ff ff       	call   395d <_ZStanSt12memory_orderSt23__memory_order_modifier>
    3a6e:	89 45 f4             	mov    %eax,-0xc(%rbp)
    3a71:	0f b6 55 ef          	movzbl -0x11(%rbp),%edx
    3a75:	48 8b 45 f8          	mov    -0x8(%rbp),%rax
    3a79:	86 10                	xchg   %dl,(%rax)
    3a7b:	90                   	nop
    3a7c:	90                   	nop
    3a7d:	c9                   	leave  
    3a7e:	c3                   	ret    
    3a7f:	90                   	nop

0000000000003a80 <_ZNKSt6atomicIbE4loadESt12memory_order>:
    3a80:	f3 0f 1e fa          	endbr64 
    3a84:	55                   	push   %rbp
    3a85:	48 89 e5             	mov    %rsp,%rbp
    3a88:	48 83 ec 20          	sub    $0x20,%rsp
    3a8c:	48 89 7d e8          	mov    %rdi,-0x18(%rbp)
    3a90:	89 75 e4             	mov    %esi,-0x1c(%rbp)
    3a93:	48 8b 45 e8          	mov    -0x18(%rbp),%rax
    3a97:	48 89 45 f8          	mov    %rax,-0x8(%rbp)
    3a9b:	8b 45 e4             	mov    -0x1c(%rbp),%eax
    3a9e:	89 45 f0             	mov    %eax,-0x10(%rbp)
    3aa1:	8b 45 f0             	mov    -0x10(%rbp),%eax
    3aa4:	be ff ff 00 00       	mov    $0xffff,%esi
    3aa9:	89 c7                	mov    %eax,%edi
    3aab:	e8 ad fe ff ff       	call   395d <_ZStanSt12memory_orderSt23__memory_order_modifier>
    3ab0:	89 45 f4             	mov    %eax,-0xc(%rbp)
    3ab3:	48 8b 45 f8          	mov    -0x8(%rbp),%rax
    3ab7:	0f b6 00             	movzbl (%rax),%eax
    3aba:	84 c0                	test   %al,%al
    3abc:	0f 95 c0             	setne  %al
    3abf:	c9                   	leave  
    3ac0:	c3                   	ret    
    3ac1:	90                   	nop

0000000000003ac2 <_ZNSt6atomicIiEC1Ei>:
    3ac2:	f3 0f 1e fa          	endbr64 
    3ac6:	55                   	push   %rbp
    3ac7:	48 89 e5             	mov    %rsp,%rbp
    3aca:	48 83 ec 10          	sub    $0x10,%rsp
    3ace:	48 89 7d f8          	mov    %rdi,-0x8(%rbp)
    3ad2:	89 75 f4             	mov    %esi,-0xc(%rbp)
    3ad5:	48 8b 45 f8          	mov    -0x8(%rbp),%rax
    3ad9:	8b 55 f4             	mov    -0xc(%rbp),%edx
    3adc:	89 d6                	mov    %edx,%esi
    3ade:	48 89 c7             	mov    %rax,%rdi
    3ae1:	e8 e6 0e 00 00       	call   49cc <_ZNSt13__atomic_baseIiEC1Ei>
    3ae6:	90                   	nop
    3ae7:	c9                   	leave  
    3ae8:	c3                   	ret    
    3ae9:	90                   	nop

0000000000003aea <_ZNSt6atomicImEC1Em>:
    3aea:	f3 0f 1e fa          	endbr64 
    3aee:	55                   	push   %rbp
    3aef:	48 89 e5             	mov    %rsp,%rbp
    3af2:	48 83 ec 10          	sub    $0x10,%rsp
    3af6:	48 89 7d f8          	mov    %rdi,-0x8(%rbp)
    3afa:	48 89 75 f0          	mov    %rsi,-0x10(%rbp)
    3afe:	48 8b 45 f8          	mov    -0x8(%rbp),%rax
    3b02:	48 8b 55 f0          	mov    -0x10(%rbp),%rdx
    3b06:	48 89 d6             	mov    %rdx,%rsi
    3b09:	48 89 c7             	mov    %rax,%rdi
    3b0c:	e8 d7 0e 00 00       	call   49e8 <_ZNSt13__atomic_baseImEC1Em>
    3b11:	90                   	nop
    3b12:	c9                   	leave  
    3b13:	c3                   	ret    

0000000000003b14 <_ZNSt11this_thread5yieldEv>:
    3b14:	f3 0f 1e fa          	endbr64 
    3b18:	55                   	push   %rbp
    3b19:	48 89 e5             	mov    %rsp,%rbp
    3b1c:	e8 19 fe ff ff       	call   393a <_ZL15__gthread_yieldv>
    3b21:	90                   	nop
    3b22:	5d                   	pop    %rbp
    3b23:	c3                   	ret    

0000000000003b24 <_ZN3tbb6detail2d0L13machine_pauseEi>:
    3b24:	55                   	push   %rbp
    3b25:	48 89 e5             	mov    %rsp,%rbp
    3b28:	89 7d fc             	mov    %edi,-0x4(%rbp)
    3b2b:	eb 03                	jmp    3b30 <_ZN3tbb6detail2d0L13machine_pauseEi+0xc>
    3b2d:	f3 90                	pause  
    3b2f:	90                   	nop
    3b30:	8b 45 fc             	mov    -0x4(%rbp),%eax
    3b33:	8d 50 ff             	lea    -0x1(%rax),%edx
    3b36:	89 55 fc             	mov    %edx,-0x4(%rbp)
    3b39:	85 c0                	test   %eax,%eax
    3b3b:	0f 9f c0             	setg   %al
    3b3e:	84 c0                	test   %al,%al
    3b40:	75 eb                	jne    3b2d <_ZN3tbb6detail2d0L13machine_pauseEi+0x9>
    3b42:	90                   	nop
    3b43:	90                   	nop
    3b44:	5d                   	pop    %rbp
    3b45:	c3                   	ret    

0000000000003b46 <_ZN3tbb6detail2d014atomic_backoffC1Ev>:
    3b46:	f3 0f 1e fa          	endbr64 
    3b4a:	55                   	push   %rbp
    3b4b:	48 89 e5             	mov    %rsp,%rbp
    3b4e:	48 89 7d f8          	mov    %rdi,-0x8(%rbp)
    3b52:	48 8b 45 f8          	mov    -0x8(%rbp),%rax
    3b56:	c7 00 01 00 00 00    	movl   $0x1,(%rax)
    3b5c:	90                   	nop
    3b5d:	5d                   	pop    %rbp
    3b5e:	c3                   	ret    
    3b5f:	90                   	nop

0000000000003b60 <_ZN3tbb6detail2d014atomic_backoff5pauseEv>:
    3b60:	f3 0f 1e fa          	endbr64 
    3b64:	55                   	push   %rbp
    3b65:	48 89 e5             	mov    %rsp,%rbp
    3b68:	48 83 ec 10          	sub    $0x10,%rsp
    3b6c:	48 89 7d f8          	mov    %rdi,-0x8(%rbp)
    3b70:	48 8b 45 f8          	mov    -0x8(%rbp),%rax
    3b74:	8b 00                	mov    (%rax),%eax
    3b76:	83 f8 10             	cmp    $0x10,%eax
    3b79:	7f 1e                	jg     3b99 <_ZN3tbb6detail2d014atomic_backoff5pauseEv+0x39>
    3b7b:	48 8b 45 f8          	mov    -0x8(%rbp),%rax
    3b7f:	8b 00                	mov    (%rax),%eax
    3b81:	89 c7                	mov    %eax,%edi
    3b83:	e8 9c ff ff ff       	call   3b24 <_ZN3tbb6detail2d0L13machine_pauseEi>
    3b88:	48 8b 45 f8          	mov    -0x8(%rbp),%rax
    3b8c:	8b 00                	mov    (%rax),%eax
    3b8e:	8d 14 00             	lea    (%rax,%rax,1),%edx
    3b91:	48 8b 45 f8          	mov    -0x8(%rbp),%rax
    3b95:	89 10                	mov    %edx,(%rax)
    3b97:	eb 05                	jmp    3b9e <_ZN3tbb6detail2d014atomic_backoff5pauseEv+0x3e>
    3b99:	e8 76 ff ff ff       	call   3b14 <_ZNSt11this_thread5yieldEv>
    3b9e:	90                   	nop
    3b9f:	c9                   	leave  
    3ba0:	c3                   	ret    
    3ba1:	90                   	nop

0000000000003ba2 <_ZN3tbb6detail2d113delegate_baseD1Ev>:
    3ba2:	f3 0f 1e fa          	endbr64 
    3ba6:	55                   	push   %rbp
    3ba7:	48 89 e5             	mov    %rsp,%rbp
    3baa:	48 89 7d f8          	mov    %rdi,-0x8(%rbp)
    3bae:	48 8d 15 93 7f 00 00 	lea    0x7f93(%rip),%rdx        # bb48 <__cxa_pure_virtual@CXXABI_1.3>
    3bb5:	48 8b 45 f8          	mov    -0x8(%rbp),%rax
    3bb9:	48 89 10             	mov    %rdx,(%rax)
    3bbc:	90                   	nop
    3bbd:	5d                   	pop    %rbp
    3bbe:	c3                   	ret    
    3bbf:	90                   	nop

0000000000003bc0 <_ZN3tbb6detail2d113delegate_baseD0Ev>:
    3bc0:	f3 0f 1e fa          	endbr64 
    3bc4:	55                   	push   %rbp
    3bc5:	48 89 e5             	mov    %rsp,%rbp
    3bc8:	48 83 ec 10          	sub    $0x10,%rsp
    3bcc:	48 89 7d f8          	mov    %rdi,-0x8(%rbp)
    3bd0:	48 8b 45 f8          	mov    -0x8(%rbp),%rax
    3bd4:	48 89 c7             	mov    %rax,%rdi
    3bd7:	e8 c6 ff ff ff       	call   3ba2 <_ZN3tbb6detail2d113delegate_baseD1Ev>
    3bdc:	48 8b 45 f8          	mov    -0x8(%rbp),%rax
    3be0:	be 08 00 00 00       	mov    $0x8,%esi
    3be5:	48 89 c7             	mov    %rax,%rdi
    3be8:	e8 23 e7 ff ff       	call   2310 <_ZdlPvm@plt>
    3bed:	c9                   	leave  
    3bee:	c3                   	ret    

0000000000003bef <_ZSt3minImERKT_S2_S2_>:
    3bef:	f3 0f 1e fa          	endbr64 
    3bf3:	55                   	push   %rbp
    3bf4:	48 89 e5             	mov    %rsp,%rbp
    3bf7:	48 89 7d f8          	mov    %rdi,-0x8(%rbp)
    3bfb:	48 89 75 f0          	mov    %rsi,-0x10(%rbp)
    3bff:	48 8b 45 f0          	mov    -0x10(%rbp),%rax
    3c03:	48 8b 10             	mov    (%rax),%rdx
    3c06:	48 8b 45 f8          	mov    -0x8(%rbp),%rax
    3c0a:	48 8b 00             	mov    (%rax),%rax
    3c0d:	48 39 c2             	cmp    %rax,%rdx
    3c10:	73 06                	jae    3c18 <_ZSt3minImERKT_S2_S2_+0x29>
    3c12:	48 8b 45 f0          	mov    -0x10(%rbp),%rax
    3c16:	eb 04                	jmp    3c1c <_ZSt3minImERKT_S2_S2_+0x2d>
    3c18:	48 8b 45 f8          	mov    -0x8(%rbp),%rax
    3c1c:	5d                   	pop    %rbp
    3c1d:	c3                   	ret    

0000000000003c1e <_ZN3tbb6detail2d120call_itt_task_notifyENS1_11notify_typeEPv>:
    3c1e:	f3 0f 1e fa          	endbr64 
    3c22:	55                   	push   %rbp
    3c23:	48 89 e5             	mov    %rsp,%rbp
    3c26:	89 7d fc             	mov    %edi,-0x4(%rbp)
    3c29:	48 89 75 f0          	mov    %rsi,-0x10(%rbp)
    3c2d:	90                   	nop
    3c2e:	5d                   	pop    %rbp
    3c2f:	c3                   	ret    

0000000000003c30 <_ZN3tbb6detail2d112wait_context13add_referenceEl>:
    3c30:	f3 0f 1e fa          	endbr64 
    3c34:	55                   	push   %rbp
    3c35:	48 89 e5             	mov    %rsp,%rbp
    3c38:	48 83 ec 40          	sub    $0x40,%rsp
    3c3c:	48 89 7d c8          	mov    %rdi,-0x38(%rbp)
    3c40:	48 89 75 c0          	mov    %rsi,-0x40(%rbp)
    3c44:	48 8b 45 c8          	mov    -0x38(%rbp),%rax
    3c48:	48 89 c6             	mov    %rax,%rsi
    3c4b:	bf 03 00 00 00       	mov    $0x3,%edi
    3c50:	e8 c9 ff ff ff       	call   3c1e <_ZN3tbb6detail2d120call_itt_task_notifyENS1_11notify_typeEPv>
    3c55:	48 8b 45 c8          	mov    -0x38(%rbp),%rax
    3c59:	48 8d 50 08          	lea    0x8(%rax),%rdx
    3c5d:	48 8b 45 c0          	mov    -0x40(%rbp),%rax
    3c61:	48 89 55 f0          	mov    %rdx,-0x10(%rbp)
    3c65:	48 89 45 f8          	mov    %rax,-0x8(%rbp)
    3c69:	c7 45 dc 05 00 00 00 	movl   $0x5,-0x24(%rbp)
    3c70:	48 8b 45 f0          	mov    -0x10(%rbp),%rax
    3c74:	48 8b 55 f8          	mov    -0x8(%rbp),%rdx
    3c78:	f0 48 0f c1 10       	lock xadd %rdx,(%rax)
    3c7d:	90                   	nop
    3c7e:	48 8b 45 c0          	mov    -0x40(%rbp),%rax
    3c82:	48 01 d0             	add    %rdx,%rax
    3c85:	48 89 45 e0          	mov    %rax,-0x20(%rbp)
    3c89:	48 83 7d e0 00       	cmpq   $0x0,-0x20(%rbp)
    3c8e:	75 14                	jne    3ca4 <_ZN3tbb6detail2d112wait_context13add_referenceEl+0x74>
    3c90:	48 8b 45 c8          	mov    -0x38(%rbp),%rax
    3c94:	48 89 45 e8          	mov    %rax,-0x18(%rbp)
    3c98:	48 8b 45 e8          	mov    -0x18(%rbp),%rax
    3c9c:	48 89 c7             	mov    %rax,%rdi
    3c9f:	e8 7c e7 ff ff       	call   2420 <_ZN3tbb6detail2r114notify_waitersEm@plt>
    3ca4:	90                   	nop
    3ca5:	c9                   	leave  
    3ca6:	c3                   	ret    
    3ca7:	90                   	nop

0000000000003ca8 <_ZN3tbb6detail2d112wait_contextC1Ej>:
    3ca8:	f3 0f 1e fa          	endbr64 
    3cac:	55                   	push   %rbp
    3cad:	48 89 e5             	mov    %rsp,%rbp
    3cb0:	48 83 ec 10          	sub    $0x10,%rsp
    3cb4:	48 89 7d f8          	mov    %rdi,-0x8(%rbp)
    3cb8:	89 75 f4             	mov    %esi,-0xc(%rbp)
    3cbb:	48 8b 45 f8          	mov    -0x8(%rbp),%rax
    3cbf:	48 c7 00 01 00 00 00 	movq   $0x1,(%rax)
    3cc6:	48 8b 45 f8          	mov    -0x8(%rbp),%rax
    3cca:	48 8d 50 08          	lea    0x8(%rax),%rdx
    3cce:	8b 45 f4             	mov    -0xc(%rbp),%eax
    3cd1:	48 89 c6             	mov    %rax,%rsi
    3cd4:	48 89 d7             	mov    %rdx,%rdi
    3cd7:	e8 0e fe ff ff       	call   3aea <_ZNSt6atomicImEC1Em>
    3cdc:	48 8b 45 f8          	mov    -0x8(%rbp),%rax
    3ce0:	48 89 c7             	mov    %rax,%rdi
    3ce3:	e8 30 0d 00 00       	call   4a18 <_ZN3tbb6detail2d023suppress_unused_warningIJRmEEEvDpOT_>
    3ce8:	90                   	nop
    3ce9:	c9                   	leave  
    3cea:	c3                   	ret    
    3ceb:	90                   	nop

0000000000003cec <_ZN3tbb6detail2d112wait_contextD1Ev>:
    3cec:	f3 0f 1e fa          	endbr64 
    3cf0:	55                   	push   %rbp
    3cf1:	48 89 e5             	mov    %rsp,%rbp
    3cf4:	48 89 7d f8          	mov    %rdi,-0x8(%rbp)
    3cf8:	90                   	nop
    3cf9:	5d                   	pop    %rbp
    3cfa:	c3                   	ret    
    3cfb:	90                   	nop

0000000000003cfc <_ZN3tbb6detail2d112wait_context7reserveEj>:
    3cfc:	f3 0f 1e fa          	endbr64 
    3d00:	55                   	push   %rbp
    3d01:	48 89 e5             	mov    %rsp,%rbp
    3d04:	48 83 ec 10          	sub    $0x10,%rsp
    3d08:	48 89 7d f8          	mov    %rdi,-0x8(%rbp)
    3d0c:	89 75 f4             	mov    %esi,-0xc(%rbp)
    3d0f:	8b 55 f4             	mov    -0xc(%rbp),%edx
    3d12:	48 8b 45 f8          	mov    -0x8(%rbp),%rax
    3d16:	48 89 d6             	mov    %rdx,%rsi
    3d19:	48 89 c7             	mov    %rax,%rdi
    3d1c:	e8 0f ff ff ff       	call   3c30 <_ZN3tbb6detail2d112wait_context13add_referenceEl>
    3d21:	90                   	nop
    3d22:	c9                   	leave  
    3d23:	c3                   	ret    

0000000000003d24 <_ZN3tbb6detail2d112wait_context7releaseEj>:
    3d24:	f3 0f 1e fa          	endbr64 
    3d28:	55                   	push   %rbp
    3d29:	48 89 e5             	mov    %rsp,%rbp
    3d2c:	48 83 ec 10          	sub    $0x10,%rsp
    3d30:	48 89 7d f8          	mov    %rdi,-0x8(%rbp)
    3d34:	89 75 f4             	mov    %esi,-0xc(%rbp)
    3d37:	8b 45 f4             	mov    -0xc(%rbp),%eax
    3d3a:	48 f7 d8             	neg    %rax
    3d3d:	48 89 c2             	mov    %rax,%rdx
    3d40:	48 8b 45 f8          	mov    -0x8(%rbp),%rax
    3d44:	48 89 d6             	mov    %rdx,%rsi
    3d47:	48 89 c7             	mov    %rax,%rdi
    3d4a:	e8 e1 fe ff ff       	call   3c30 <_ZN3tbb6detail2d112wait_context13add_referenceEl>
    3d4f:	90                   	nop
    3d50:	c9                   	leave  
    3d51:	c3                   	ret    

0000000000003d52 <_ZN3tbb6detail2d17contextERKNS1_14execution_dataE>:
    3d52:	f3 0f 1e fa          	endbr64 
    3d56:	55                   	push   %rbp
    3d57:	48 89 e5             	mov    %rsp,%rbp
    3d5a:	48 89 7d f8          	mov    %rdi,-0x8(%rbp)
    3d5e:	48 8b 45 f8          	mov    -0x8(%rbp),%rax
    3d62:	48 8b 00             	mov    (%rax),%rax
    3d65:	5d                   	pop    %rbp
    3d66:	c3                   	ret    

0000000000003d67 <_ZN3tbb6detail2d113original_slotERKNS1_14execution_dataE>:
    3d67:	f3 0f 1e fa          	endbr64 
    3d6b:	55                   	push   %rbp
    3d6c:	48 89 e5             	mov    %rsp,%rbp
    3d6f:	48 89 7d f8          	mov    %rdi,-0x8(%rbp)
    3d73:	48 8b 45 f8          	mov    -0x8(%rbp),%rax
    3d77:	0f b7 40 08          	movzwl 0x8(%rax),%eax
    3d7b:	5d                   	pop    %rbp
    3d7c:	c3                   	ret    

0000000000003d7d <_ZN3tbb6detail2d113affinity_slotERKNS1_14execution_dataE>:
    3d7d:	f3 0f 1e fa          	endbr64 
    3d81:	55                   	push   %rbp
    3d82:	48 89 e5             	mov    %rsp,%rbp
    3d85:	48 89 7d f8          	mov    %rdi,-0x8(%rbp)
    3d89:	48 8b 45 f8          	mov    -0x8(%rbp),%rax
    3d8d:	0f b7 40 0a          	movzwl 0xa(%rax),%eax
    3d91:	5d                   	pop    %rbp
    3d92:	c3                   	ret    

0000000000003d93 <_ZN3tbb6detail2d114execution_slotERKNS1_14execution_dataE>:
    3d93:	f3 0f 1e fa          	endbr64 
    3d97:	55                   	push   %rbp
    3d98:	48 89 e5             	mov    %rsp,%rbp
    3d9b:	48 83 ec 10          	sub    $0x10,%rsp
    3d9f:	48 89 7d f8          	mov    %rdi,-0x8(%rbp)
    3da3:	48 8b 45 f8          	mov    -0x8(%rbp),%rax
    3da7:	48 89 c7             	mov    %rax,%rdi
    3daa:	e8 51 e6 ff ff       	call   2400 <_ZN3tbb6detail2r114execution_slotEPKNS0_2d114execution_dataE@plt>
    3daf:	c9                   	leave  
    3db0:	c3                   	ret    

0000000000003db1 <_ZN3tbb6detail2d116is_same_affinityERKNS1_14execution_dataE>:
    3db1:	f3 0f 1e fa          	endbr64 
    3db5:	55                   	push   %rbp
    3db6:	48 89 e5             	mov    %rsp,%rbp
    3db9:	53                   	push   %rbx
    3dba:	48 83 ec 18          	sub    $0x18,%rsp
    3dbe:	48 89 7d e8          	mov    %rdi,-0x18(%rbp)
    3dc2:	48 8b 45 e8          	mov    -0x18(%rbp),%rax
    3dc6:	48 89 c7             	mov    %rax,%rdi
    3dc9:	e8 af ff ff ff       	call   3d7d <_ZN3tbb6detail2d113affinity_slotERKNS1_14execution_dataE>
    3dce:	66 83 f8 ff          	cmp    $0xffff,%ax
    3dd2:	74 1f                	je     3df3 <_ZN3tbb6detail2d116is_same_affinityERKNS1_14execution_dataE+0x42>
    3dd4:	48 8b 45 e8          	mov    -0x18(%rbp),%rax
    3dd8:	48 89 c7             	mov    %rax,%rdi
    3ddb:	e8 9d ff ff ff       	call   3d7d <_ZN3tbb6detail2d113affinity_slotERKNS1_14execution_dataE>
    3de0:	89 c3                	mov    %eax,%ebx
    3de2:	48 8b 45 e8          	mov    -0x18(%rbp),%rax
    3de6:	48 89 c7             	mov    %rax,%rdi
    3de9:	e8 a5 ff ff ff       	call   3d93 <_ZN3tbb6detail2d114execution_slotERKNS1_14execution_dataE>
    3dee:	66 39 c3             	cmp    %ax,%bx
    3df1:	75 07                	jne    3dfa <_ZN3tbb6detail2d116is_same_affinityERKNS1_14execution_dataE+0x49>
    3df3:	b8 01 00 00 00       	mov    $0x1,%eax
    3df8:	eb 05                	jmp    3dff <_ZN3tbb6detail2d116is_same_affinityERKNS1_14execution_dataE+0x4e>
    3dfa:	b8 00 00 00 00       	mov    $0x0,%eax
    3dff:	48 8b 5d f8          	mov    -0x8(%rbp),%rbx
    3e03:	c9                   	leave  
    3e04:	c3                   	ret    

0000000000003e05 <_ZN3tbb6detail2d15spawnERNS1_4taskERNS1_18task_group_contextE>:
    3e05:	f3 0f 1e fa          	endbr64 
    3e09:	55                   	push   %rbp
    3e0a:	48 89 e5             	mov    %rsp,%rbp
    3e0d:	48 83 ec 10          	sub    $0x10,%rsp
    3e11:	48 89 7d f8          	mov    %rdi,-0x8(%rbp)
    3e15:	48 89 75 f0          	mov    %rsi,-0x10(%rbp)
    3e19:	48 8b 45 f8          	mov    -0x8(%rbp),%rax
    3e1d:	48 89 c6             	mov    %rax,%rsi
    3e20:	bf 03 00 00 00       	mov    $0x3,%edi
    3e25:	e8 f4 fd ff ff       	call   3c1e <_ZN3tbb6detail2d120call_itt_task_notifyENS1_11notify_typeEPv>
    3e2a:	48 8b 55 f0          	mov    -0x10(%rbp),%rdx
    3e2e:	48 8b 45 f8          	mov    -0x8(%rbp),%rax
    3e32:	48 89 d6             	mov    %rdx,%rsi
    3e35:	48 89 c7             	mov    %rax,%rdi
    3e38:	e8 03 e4 ff ff       	call   2240 <_ZN3tbb6detail2r15spawnERNS0_2d14taskERNS2_18task_group_contextE@plt>
    3e3d:	90                   	nop
    3e3e:	c9                   	leave  
    3e3f:	c3                   	ret    

0000000000003e40 <_ZN3tbb6detail2d116execute_and_waitERNS1_4taskERNS1_18task_group_contextERNS1_12wait_contextES5_>:
    3e40:	f3 0f 1e fa          	endbr64 
    3e44:	55                   	push   %rbp
    3e45:	48 89 e5             	mov    %rsp,%rbp
    3e48:	48 83 ec 20          	sub    $0x20,%rsp
    3e4c:	48 89 7d f8          	mov    %rdi,-0x8(%rbp)
    3e50:	48 89 75 f0          	mov    %rsi,-0x10(%rbp)
    3e54:	48 89 55 e8          	mov    %rdx,-0x18(%rbp)
    3e58:	48 89 4d e0          	mov    %rcx,-0x20(%rbp)
    3e5c:	48 8b 4d e0          	mov    -0x20(%rbp),%rcx
    3e60:	48 8b 55 e8          	mov    -0x18(%rbp),%rdx
    3e64:	48 8b 75 f0          	mov    -0x10(%rbp),%rsi
    3e68:	48 8b 45 f8          	mov    -0x8(%rbp),%rax
    3e6c:	48 89 c7             	mov    %rax,%rdi
    3e6f:	e8 0c e5 ff ff       	call   2380 <_ZN3tbb6detail2r116execute_and_waitERNS0_2d14taskERNS2_18task_group_contextERNS2_12wait_contextES6_@plt>
    3e74:	48 8b 45 e8          	mov    -0x18(%rbp),%rax
    3e78:	48 89 c6             	mov    %rax,%rsi
    3e7b:	bf 02 00 00 00       	mov    $0x2,%edi
    3e80:	e8 99 fd ff ff       	call   3c1e <_ZN3tbb6detail2d120call_itt_task_notifyENS1_11notify_typeEPv>
    3e85:	48 8b 45 e8          	mov    -0x18(%rbp),%rax
    3e89:	48 89 c6             	mov    %rax,%rsi
    3e8c:	bf 04 00 00 00       	mov    $0x4,%edi
    3e91:	e8 88 fd ff ff       	call   3c1e <_ZN3tbb6detail2d120call_itt_task_notifyENS1_11notify_typeEPv>
    3e96:	90                   	nop
    3e97:	c9                   	leave  
    3e98:	c3                   	ret    

0000000000003e99 <_ZN3tbb6detail2d14waitERNS1_12wait_contextERNS1_18task_group_contextE>:
    3e99:	f3 0f 1e fa          	endbr64 
    3e9d:	55                   	push   %rbp
    3e9e:	48 89 e5             	mov    %rsp,%rbp
    3ea1:	48 83 ec 10          	sub    $0x10,%rsp
    3ea5:	48 89 7d f8          	mov    %rdi,-0x8(%rbp)
    3ea9:	48 89 75 f0          	mov    %rsi,-0x10(%rbp)
    3ead:	48 8b 55 f0          	mov    -0x10(%rbp),%rdx
    3eb1:	48 8b 45 f8          	mov    -0x8(%rbp),%rax
    3eb5:	48 89 d6             	mov    %rdx,%rsi
    3eb8:	48 89 c7             	mov    %rax,%rdi
    3ebb:	e8 70 e5 ff ff       	call   2430 <_ZN3tbb6detail2r14waitERNS0_2d112wait_contextERNS2_18task_group_contextE@plt>
    3ec0:	48 8b 45 f8          	mov    -0x8(%rbp),%rax
    3ec4:	48 89 c6             	mov    %rax,%rsi
    3ec7:	bf 02 00 00 00       	mov    $0x2,%edi
    3ecc:	e8 4d fd ff ff       	call   3c1e <_ZN3tbb6detail2d120call_itt_task_notifyENS1_11notify_typeEPv>
    3ed1:	48 8b 45 f8          	mov    -0x8(%rbp),%rax
    3ed5:	48 89 c6             	mov    %rax,%rsi
    3ed8:	bf 04 00 00 00       	mov    $0x4,%edi
    3edd:	e8 3c fd ff ff       	call   3c1e <_ZN3tbb6detail2d120call_itt_task_notifyENS1_11notify_typeEPv>
    3ee2:	90                   	nop
    3ee3:	c9                   	leave  
    3ee4:	c3                   	ret    
    3ee5:	90                   	nop

0000000000003ee6 <_ZN3tbb6detail2d111task_traitsC1Ev>:
    3ee6:	f3 0f 1e fa          	endbr64 
    3eea:	55                   	push   %rbp
    3eeb:	48 89 e5             	mov    %rsp,%rbp
    3eee:	48 89 7d f8          	mov    %rdi,-0x8(%rbp)
    3ef2:	48 8b 45 f8          	mov    -0x8(%rbp),%rax
    3ef6:	48 c7 00 00 00 00 00 	movq   $0x0,(%rax)
    3efd:	90                   	nop
    3efe:	5d                   	pop    %rbp
    3eff:	c3                   	ret    

0000000000003f00 <_ZN3tbb6detail2d14taskC1Ev>:
    3f00:	f3 0f 1e fa          	endbr64 
    3f04:	55                   	push   %rbp
    3f05:	48 89 e5             	mov    %rsp,%rbp
    3f08:	48 83 ec 10          	sub    $0x10,%rsp
    3f0c:	48 89 7d f8          	mov    %rdi,-0x8(%rbp)
    3f10:	48 8b 45 f8          	mov    -0x8(%rbp),%rax
    3f14:	48 83 c0 08          	add    $0x8,%rax
    3f18:	48 89 c7             	mov    %rax,%rdi
    3f1b:	e8 c6 ff ff ff       	call   3ee6 <_ZN3tbb6detail2d111task_traitsC1Ev>
    3f20:	48 8d 15 f1 7b 00 00 	lea    0x7bf1(%rip),%rdx        # bb18 <_ZTVN3tbb6detail2d14taskE+0x10>
    3f27:	48 8b 45 f8          	mov    -0x8(%rbp),%rax
    3f2b:	48 89 10             	mov    %rdx,(%rax)
    3f2e:	48 8b 45 f8          	mov    -0x8(%rbp),%rax
    3f32:	48 c7 40 10 00 00 00 	movq   $0x0,0x10(%rax)
    3f39:	00 
    3f3a:	48 c7 40 18 00 00 00 	movq   $0x0,0x18(%rax)
    3f41:	00 
    3f42:	48 c7 40 20 00 00 00 	movq   $0x0,0x20(%rax)
    3f49:	00 
    3f4a:	48 c7 40 28 00 00 00 	movq   $0x0,0x28(%rax)
    3f51:	00 
    3f52:	48 c7 40 30 00 00 00 	movq   $0x0,0x30(%rax)
    3f59:	00 
    3f5a:	48 c7 40 38 00 00 00 	movq   $0x0,0x38(%rax)
    3f61:	00 
    3f62:	90                   	nop
    3f63:	c9                   	leave  
    3f64:	c3                   	ret    
    3f65:	90                   	nop

0000000000003f66 <_ZN3tbb6detail2d14taskD1Ev>:
    3f66:	f3 0f 1e fa          	endbr64 
    3f6a:	55                   	push   %rbp
    3f6b:	48 89 e5             	mov    %rsp,%rbp
    3f6e:	48 89 7d f8          	mov    %rdi,-0x8(%rbp)
    3f72:	48 8d 15 9f 7b 00 00 	lea    0x7b9f(%rip),%rdx        # bb18 <_ZTVN3tbb6detail2d14taskE+0x10>
    3f79:	48 8b 45 f8          	mov    -0x8(%rbp),%rax
    3f7d:	48 89 10             	mov    %rdx,(%rax)
    3f80:	90                   	nop
    3f81:	5d                   	pop    %rbp
    3f82:	c3                   	ret    
    3f83:	90                   	nop

0000000000003f84 <_ZN3tbb6detail2d14taskD0Ev>:
    3f84:	f3 0f 1e fa          	endbr64 
    3f88:	55                   	push   %rbp
    3f89:	48 89 e5             	mov    %rsp,%rbp
    3f8c:	48 83 ec 10          	sub    $0x10,%rsp
    3f90:	48 89 7d f8          	mov    %rdi,-0x8(%rbp)
    3f94:	48 8b 45 f8          	mov    -0x8(%rbp),%rax
    3f98:	48 89 c7             	mov    %rax,%rdi
    3f9b:	e8 c6 ff ff ff       	call   3f66 <_ZN3tbb6detail2d14taskD1Ev>
    3fa0:	48 8b 45 f8          	mov    -0x8(%rbp),%rax
    3fa4:	ba 40 00 00 00       	mov    $0x40,%edx
    3fa9:	be 40 00 00 00       	mov    $0x40,%esi
    3fae:	48 89 c7             	mov    %rax,%rdi
    3fb1:	e8 aa e2 ff ff       	call   2260 <_ZdlPvmSt11align_val_t@plt>
    3fb6:	c9                   	leave  
    3fb7:	c3                   	ret    

0000000000003fb8 <_ZNSt12_Vector_baseIiSaIiEE12_Vector_implD1Ev>:
    3fb8:	f3 0f 1e fa          	endbr64 
    3fbc:	55                   	push   %rbp
    3fbd:	48 89 e5             	mov    %rsp,%rbp
    3fc0:	48 83 ec 10          	sub    $0x10,%rsp
    3fc4:	48 89 7d f8          	mov    %rdi,-0x8(%rbp)
    3fc8:	48 8b 45 f8          	mov    -0x8(%rbp),%rax
    3fcc:	48 89 c7             	mov    %rax,%rdi
    3fcf:	e8 74 0a 00 00       	call   4a48 <_ZNSaIiED1Ev>
    3fd4:	90                   	nop
    3fd5:	c9                   	leave  
    3fd6:	c3                   	ret    
    3fd7:	90                   	nop

0000000000003fd8 <_ZZN3tbb6detail2d110task_arena10initializeEvENKUlvE_clEv>:
    3fd8:	f3 0f 1e fa          	endbr64 
    3fdc:	55                   	push   %rbp
    3fdd:	48 89 e5             	mov    %rsp,%rbp
    3fe0:	48 83 ec 10          	sub    $0x10,%rsp
    3fe4:	48 89 7d f8          	mov    %rdi,-0x8(%rbp)
    3fe8:	48 8b 45 f8          	mov    -0x8(%rbp),%rax
    3fec:	48 8b 00             	mov    (%rax),%rax
    3fef:	48 89 c7             	mov    %rax,%rdi
    3ff2:	e8 f9 e2 ff ff       	call   22f0 <_ZN3tbb6detail2r110initializeERNS0_2d115task_arena_baseE@plt>
    3ff7:	90                   	nop
    3ff8:	c9                   	leave  
    3ff9:	c3                   	ret    

0000000000003ffa <_ZN3tbb6detail2d110task_arena10initializeEv>:
    3ffa:	f3 0f 1e fa          	endbr64 
    3ffe:	55                   	push   %rbp
    3fff:	48 89 e5             	mov    %rsp,%rbp
    4002:	48 83 ec 20          	sub    $0x20,%rsp
    4006:	48 89 7d e8          	mov    %rdi,-0x18(%rbp)
    400a:	64 48 8b 04 25 28 00 	mov    %fs:0x28,%rax
    4011:	00 00 
    4013:	48 89 45 f8          	mov    %rax,-0x8(%rbp)
    4017:	31 c0                	xor    %eax,%eax
    4019:	48 8b 45 e8          	mov    -0x18(%rbp),%rax
    401d:	48 8d 50 08          	lea    0x8(%rax),%rdx
    4021:	48 8b 45 e8          	mov    -0x18(%rbp),%rax
    4025:	48 89 45 f0          	mov    %rax,-0x10(%rbp)
    4029:	48 8d 45 f0          	lea    -0x10(%rbp),%rax
    402d:	48 89 d6             	mov    %rdx,%rsi
    4030:	48 89 c7             	mov    %rax,%rdi
    4033:	e8 96 0b 00 00       	call   4bce <_ZN3tbb6detail2d014atomic_do_onceIZNS0_2d110task_arena10initializeEvEUlvE_EEvRKT_RSt6atomicINS1_13do_once_stateEE>
    4038:	90                   	nop
    4039:	48 8b 45 f8          	mov    -0x8(%rbp),%rax
    403d:	64 48 2b 04 25 28 00 	sub    %fs:0x28,%rax
    4044:	00 00 
    4046:	74 05                	je     404d <_ZN3tbb6detail2d110task_arena10initializeEv+0x53>
    4048:	e8 03 e3 ff ff       	call   2350 <__stack_chk_fail@plt>
    404d:	c9                   	leave  
    404e:	c3                   	ret    
    404f:	90                   	nop

0000000000004050 <_ZN3tbb6detail2d110task_arena9terminateEv>:
    4050:	f3 0f 1e fa          	endbr64 
    4054:	55                   	push   %rbp
    4055:	48 89 e5             	mov    %rsp,%rbp
    4058:	48 83 ec 10          	sub    $0x10,%rsp
    405c:	48 89 7d f8          	mov    %rdi,-0x8(%rbp)
    4060:	48 8b 45 f8          	mov    -0x8(%rbp),%rax
    4064:	48 89 c7             	mov    %rax,%rdi
    4067:	e8 4e 00 00 00       	call   40ba <_ZNK3tbb6detail2d110task_arena9is_activeEv>
    406c:	84 c0                	test   %al,%al
    406e:	74 26                	je     4096 <_ZN3tbb6detail2d110task_arena9terminateEv+0x46>
    4070:	48 8b 45 f8          	mov    -0x8(%rbp),%rax
    4074:	48 89 c7             	mov    %rax,%rdi
    4077:	e8 f4 e2 ff ff       	call   2370 <_ZN3tbb6detail2r19terminateERNS0_2d115task_arena_baseE@plt>
    407c:	48 8b 45 f8          	mov    -0x8(%rbp),%rax
    4080:	48 83 c0 08          	add    $0x8,%rax
    4084:	ba 00 00 00 00       	mov    $0x0,%edx
    4089:	be 00 00 00 00       	mov    $0x0,%esi
    408e:	48 89 c7             	mov    %rax,%rdi
    4091:	e8 fc 0a 00 00       	call   4b92 <_ZNSt6atomicIN3tbb6detail2d013do_once_stateEE5storeES3_St12memory_order>
    4096:	90                   	nop
    4097:	c9                   	leave  
    4098:	c3                   	ret    
    4099:	90                   	nop

000000000000409a <_ZN3tbb6detail2d110task_arenaD1Ev>:
    409a:	f3 0f 1e fa          	endbr64 
    409e:	55                   	push   %rbp
    409f:	48 89 e5             	mov    %rsp,%rbp
    40a2:	48 83 ec 10          	sub    $0x10,%rsp
    40a6:	48 89 7d f8          	mov    %rdi,-0x8(%rbp)
    40aa:	48 8b 45 f8          	mov    -0x8(%rbp),%rax
    40ae:	48 89 c7             	mov    %rax,%rdi
    40b1:	e8 9a ff ff ff       	call   4050 <_ZN3tbb6detail2d110task_arena9terminateEv>
    40b6:	90                   	nop
    40b7:	c9                   	leave  
    40b8:	c3                   	ret    
    40b9:	90                   	nop

00000000000040ba <_ZNK3tbb6detail2d110task_arena9is_activeEv>:
    40ba:	f3 0f 1e fa          	endbr64 
    40be:	55                   	push   %rbp
    40bf:	48 89 e5             	mov    %rsp,%rbp
    40c2:	48 83 ec 10          	sub    $0x10,%rsp
    40c6:	48 89 7d f8          	mov    %rdi,-0x8(%rbp)
    40ca:	48 8b 45 f8          	mov    -0x8(%rbp),%rax
    40ce:	48 83 c0 08          	add    $0x8,%rax
    40d2:	be 02 00 00 00       	mov    $0x2,%esi
    40d7:	48 89 c7             	mov    %rax,%rdi
    40da:	e8 b5 0b 00 00       	call   4c94 <_ZNKSt6atomicIN3tbb6detail2d013do_once_stateEE4loadESt12memory_order>
    40df:	83 f8 02             	cmp    $0x2,%eax
    40e2:	0f 94 c0             	sete   %al
    40e5:	c9                   	leave  
    40e6:	c3                   	ret    

00000000000040e7 <_ZN3tbb6detail2d120current_thread_indexEv>:
    40e7:	f3 0f 1e fa          	endbr64 
    40eb:	55                   	push   %rbp
    40ec:	48 89 e5             	mov    %rsp,%rbp
    40ef:	48 83 ec 10          	sub    $0x10,%rsp
    40f3:	bf 00 00 00 00       	mov    $0x0,%edi
    40f8:	e8 03 e3 ff ff       	call   2400 <_ZN3tbb6detail2r114execution_slotEPKNS0_2d114execution_dataE@plt>
    40fd:	66 89 45 fe          	mov    %ax,-0x2(%rbp)
    4101:	66 83 7d fe ff       	cmpw   $0xffff,-0x2(%rbp)
    4106:	74 06                	je     410e <_ZN3tbb6detail2d120current_thread_indexEv+0x27>
    4108:	0f b7 45 fe          	movzwl -0x2(%rbp),%eax
    410c:	eb 05                	jmp    4113 <_ZN3tbb6detail2d120current_thread_indexEv+0x2c>
    410e:	b8 fe ff ff ff       	mov    $0xfffffffe,%eax
    4113:	c9                   	leave  
    4114:	c3                   	ret    

0000000000004115 <_ZN3tbb6detail2d115max_concurrencyEv>:
    4115:	f3 0f 1e fa          	endbr64 
    4119:	55                   	push   %rbp
    411a:	48 89 e5             	mov    %rsp,%rbp
    411d:	bf 00 00 00 00       	mov    $0x0,%edi
    4122:	e8 e9 e2 ff ff       	call   2410 <_ZN3tbb6detail2r115max_concurrencyEPKNS0_2d115task_arena_baseE@plt>
    4127:	5d                   	pop    %rbp
    4128:	c3                   	ret    
    4129:	90                   	nop

000000000000412a <_ZN3tbb6detail2d119intrusive_list_nodeC1Ev>:
    412a:	f3 0f 1e fa          	endbr64 
    412e:	55                   	push   %rbp
    412f:	48 89 e5             	mov    %rsp,%rbp
    4132:	48 89 7d f8          	mov    %rdi,-0x8(%rbp)
    4136:	48 8b 45 f8          	mov    -0x8(%rbp),%rax
    413a:	48 c7 00 00 00 00 00 	movq   $0x0,(%rax)
    4141:	48 8b 45 f8          	mov    -0x8(%rbp),%rax
    4145:	48 c7 40 08 00 00 00 	movq   $0x0,0x8(%rax)
    414c:	00 
    414d:	90                   	nop
    414e:	5d                   	pop    %rbp
    414f:	c3                   	ret    

0000000000004150 <_ZN3tbb6detail2d118task_group_contextC1ENS2_14context_traitsENS0_2d021string_resource_indexE>:
    4150:	f3 0f 1e fa          	endbr64 
    4154:	55                   	push   %rbp
    4155:	48 89 e5             	mov    %rsp,%rbp
    4158:	48 83 ec 20          	sub    $0x20,%rsp
    415c:	48 89 7d f8          	mov    %rdi,-0x8(%rbp)
    4160:	40 88 75 f7          	mov    %sil,-0x9(%rbp)
    4164:	48 89 55 e8          	mov    %rdx,-0x18(%rbp)
    4168:	48 8b 45 f8          	mov    -0x8(%rbp),%rax
    416c:	c6 40 0c 01          	movb   $0x1,0xc(%rax)
    4170:	48 8b 45 f8          	mov    -0x8(%rbp),%rax
    4174:	48 83 c0 20          	add    $0x20,%rax
    4178:	48 89 c7             	mov    %rax,%rdi
    417b:	e8 aa ff ff ff       	call   412a <_ZN3tbb6detail2d119intrusive_list_nodeC1Ev>
    4180:	48 8b 45 f8          	mov    -0x8(%rbp),%rax
    4184:	48 8b 55 e8          	mov    -0x18(%rbp),%rdx
    4188:	48 89 50 40          	mov    %rdx,0x40(%rax)
    418c:	48 8b 45 f8          	mov    -0x8(%rbp),%rax
    4190:	0f b6 55 f7          	movzbl -0x9(%rbp),%edx
    4194:	88 50 0d             	mov    %dl,0xd(%rax)
    4197:	48 8b 45 f8          	mov    -0x8(%rbp),%rax
    419b:	48 89 c7             	mov    %rax,%rdi
    419e:	e8 fd e1 ff ff       	call   23a0 <_ZN3tbb6detail2r110initializeERNS0_2d118task_group_contextE@plt>
    41a3:	90                   	nop
    41a4:	c9                   	leave  
    41a5:	c3                   	ret    

00000000000041a6 <_ZN3tbb6detail2d118task_group_context11make_traitsENS2_9kind_typeEm>:
    41a6:	f3 0f 1e fa          	endbr64 
    41aa:	55                   	push   %rbp
    41ab:	48 89 e5             	mov    %rsp,%rbp
    41ae:	48 83 ec 20          	sub    $0x20,%rsp
    41b2:	89 7d ec             	mov    %edi,-0x14(%rbp)
    41b5:	48 89 75 e0          	mov    %rsi,-0x20(%rbp)
    41b9:	64 48 8b 04 25 28 00 	mov    %fs:0x28,%rax
    41c0:	00 00 
    41c2:	48 89 45 f8          	mov    %rax,-0x8(%rbp)
    41c6:	31 c0                	xor    %eax,%eax
    41c8:	48 8b 45 e0          	mov    -0x20(%rbp),%rax
    41cc:	83 e0 02             	and    $0x2,%eax
    41cf:	48 85 c0             	test   %rax,%rax
    41d2:	0f 95 c0             	setne  %al
    41d5:	83 e0 01             	and    $0x1,%eax
    41d8:	89 c2                	mov    %eax,%edx
    41da:	0f b6 45 f7          	movzbl -0x9(%rbp),%eax
    41de:	83 e0 fe             	and    $0xfffffffe,%eax
    41e1:	09 d0                	or     %edx,%eax
    41e3:	88 45 f7             	mov    %al,-0x9(%rbp)
    41e6:	48 8b 45 e0          	mov    -0x20(%rbp),%rax
    41ea:	83 e0 04             	and    $0x4,%eax
    41ed:	48 85 c0             	test   %rax,%rax
    41f0:	0f 95 c0             	setne  %al
    41f3:	83 e0 01             	and    $0x1,%eax
    41f6:	8d 14 00             	lea    (%rax,%rax,1),%edx
    41f9:	0f b6 45 f7          	movzbl -0x9(%rbp),%eax
    41fd:	83 e0 fd             	and    $0xfffffffd,%eax
    4200:	09 d0                	or     %edx,%eax
    4202:	88 45 f7             	mov    %al,-0x9(%rbp)
    4205:	83 7d ec 01          	cmpl   $0x1,-0x14(%rbp)
    4209:	0f 94 c0             	sete   %al
    420c:	83 e0 01             	and    $0x1,%eax
    420f:	8d 14 85 00 00 00 00 	lea    0x0(,%rax,4),%edx
    4216:	0f b6 45 f7          	movzbl -0x9(%rbp),%eax
    421a:	83 e0 fb             	and    $0xfffffffb,%eax
    421d:	09 d0                	or     %edx,%eax
    421f:	88 45 f7             	mov    %al,-0x9(%rbp)
    4222:	0f b6 45 f7          	movzbl -0x9(%rbp),%eax
    4226:	83 e0 7f             	and    $0x7f,%eax
    4229:	88 45 f7             	mov    %al,-0x9(%rbp)
    422c:	0f b6 45 f7          	movzbl -0x9(%rbp),%eax
    4230:	c0 e8 07             	shr    $0x7,%al
    4233:	83 e0 01             	and    $0x1,%eax
    4236:	c1 e0 06             	shl    $0x6,%eax
    4239:	89 c2                	mov    %eax,%edx
    423b:	0f b6 45 f7          	movzbl -0x9(%rbp),%eax
    423f:	83 e0 bf             	and    $0xffffffbf,%eax
    4242:	09 d0                	or     %edx,%eax
    4244:	88 45 f7             	mov    %al,-0x9(%rbp)
    4247:	0f b6 45 f7          	movzbl -0x9(%rbp),%eax
    424b:	c0 e8 06             	shr    $0x6,%al
    424e:	83 e0 01             	and    $0x1,%eax
    4251:	83 e0 01             	and    $0x1,%eax
    4254:	c1 e0 05             	shl    $0x5,%eax
    4257:	89 c2                	mov    %eax,%edx
    4259:	0f b6 45 f7          	movzbl -0x9(%rbp),%eax
    425d:	83 e0 df             	and    $0xffffffdf,%eax
    4260:	09 d0                	or     %edx,%eax
    4262:	88 45 f7             	mov    %al,-0x9(%rbp)
    4265:	0f b6 45 f7          	movzbl -0x9(%rbp),%eax
    4269:	c0 e8 05             	shr    $0x5,%al
    426c:	83 e0 01             	and    $0x1,%eax
    426f:	83 e0 01             	and    $0x1,%eax
    4272:	c1 e0 04             	shl    $0x4,%eax
    4275:	89 c2                	mov    %eax,%edx
    4277:	0f b6 45 f7          	movzbl -0x9(%rbp),%eax
    427b:	83 e0 ef             	and    $0xffffffef,%eax
    427e:	09 d0                	or     %edx,%eax
    4280:	88 45 f7             	mov    %al,-0x9(%rbp)
    4283:	0f b6 45 f7          	movzbl -0x9(%rbp),%eax
    4287:	c0 e8 04             	shr    $0x4,%al
    428a:	83 e0 01             	and    $0x1,%eax
    428d:	83 e0 01             	and    $0x1,%eax
    4290:	8d 14 c5 00 00 00 00 	lea    0x0(,%rax,8),%edx
    4297:	0f b6 45 f7          	movzbl -0x9(%rbp),%eax
    429b:	83 e0 f7             	and    $0xfffffff7,%eax
    429e:	09 d0                	or     %edx,%eax
    42a0:	88 45 f7             	mov    %al,-0x9(%rbp)
    42a3:	0f b6 45 f7          	movzbl -0x9(%rbp),%eax
    42a7:	48 8b 55 f8          	mov    -0x8(%rbp),%rdx
    42ab:	64 48 2b 14 25 28 00 	sub    %fs:0x28,%rdx
    42b2:	00 00 
    42b4:	74 05                	je     42bb <_ZN3tbb6detail2d118task_group_context11make_traitsENS2_9kind_typeEm+0x115>
    42b6:	e8 95 e0 ff ff       	call   2350 <__stack_chk_fail@plt>
    42bb:	c9                   	leave  
    42bc:	c3                   	ret    
    42bd:	90                   	nop

00000000000042be <_ZNK3tbb6detail2d118task_group_context8is_proxyEv>:
    42be:	f3 0f 1e fa          	endbr64 
    42c2:	55                   	push   %rbp
    42c3:	48 89 e5             	mov    %rsp,%rbp
    42c6:	48 83 ec 10          	sub    $0x10,%rsp
    42ca:	48 89 7d f8          	mov    %rdi,-0x8(%rbp)
    42ce:	48 8b 45 f8          	mov    -0x8(%rbp),%rax
    42d2:	48 83 c0 0f          	add    $0xf,%rax
    42d6:	be 00 00 00 00       	mov    $0x0,%esi
    42db:	48 89 c7             	mov    %rax,%rdi
    42de:	e8 0d 0a 00 00       	call   4cf0 <_ZNKSt6atomicIN3tbb6detail2d118task_group_context5stateEE4loadESt12memory_order>
    42e3:	3c ff                	cmp    $0xff,%al
    42e5:	0f 94 c0             	sete   %al
    42e8:	c9                   	leave  
    42e9:	c3                   	ret    

00000000000042ea <_ZN3tbb6detail2d118task_group_context14actual_contextEv>:
    42ea:	f3 0f 1e fa          	endbr64 
    42ee:	55                   	push   %rbp
    42ef:	48 89 e5             	mov    %rsp,%rbp
    42f2:	48 83 ec 10          	sub    $0x10,%rsp
    42f6:	48 89 7d f8          	mov    %rdi,-0x8(%rbp)
    42fa:	48 8b 45 f8          	mov    -0x8(%rbp),%rax
    42fe:	48 89 c7             	mov    %rax,%rdi
    4301:	e8 b8 ff ff ff       	call   42be <_ZNK3tbb6detail2d118task_group_context8is_proxyEv>
    4306:	84 c0                	test   %al,%al
    4308:	74 0a                	je     4314 <_ZN3tbb6detail2d118task_group_context14actual_contextEv+0x2a>
    430a:	48 8b 45 f8          	mov    -0x8(%rbp),%rax
    430e:	48 8b 40 10          	mov    0x10(%rax),%rax
    4312:	eb 04                	jmp    4318 <_ZN3tbb6detail2d118task_group_context14actual_contextEv+0x2e>
    4314:	48 8b 45 f8          	mov    -0x8(%rbp),%rax
    4318:	c9                   	leave  
    4319:	c3                   	ret    

000000000000431a <_ZNK3tbb6detail2d118task_group_context14actual_contextEv>:
    431a:	f3 0f 1e fa          	endbr64 
    431e:	55                   	push   %rbp
    431f:	48 89 e5             	mov    %rsp,%rbp
    4322:	48 83 ec 10          	sub    $0x10,%rsp
    4326:	48 89 7d f8          	mov    %rdi,-0x8(%rbp)
    432a:	48 8b 45 f8          	mov    -0x8(%rbp),%rax
    432e:	48 89 c7             	mov    %rax,%rdi
    4331:	e8 88 ff ff ff       	call   42be <_ZNK3tbb6detail2d118task_group_context8is_proxyEv>
    4336:	84 c0                	test   %al,%al
    4338:	74 0a                	je     4344 <_ZNK3tbb6detail2d118task_group_context14actual_contextEv+0x2a>
    433a:	48 8b 45 f8          	mov    -0x8(%rbp),%rax
    433e:	48 8b 40 10          	mov    0x10(%rax),%rax
    4342:	eb 04                	jmp    4348 <_ZNK3tbb6detail2d118task_group_context14actual_contextEv+0x2e>
    4344:	48 8b 45 f8          	mov    -0x8(%rbp),%rax
    4348:	c9                   	leave  
    4349:	c3                   	ret    

000000000000434a <_ZN3tbb6detail2d118task_group_contextC1ENS0_2d021string_resource_indexE>:
    434a:	f3 0f 1e fa          	endbr64 
    434e:	55                   	push   %rbp
    434f:	48 89 e5             	mov    %rsp,%rbp
    4352:	48 83 ec 10          	sub    $0x10,%rsp
    4356:	48 89 7d f8          	mov    %rdi,-0x8(%rbp)
    435a:	48 89 75 f0          	mov    %rsi,-0x10(%rbp)
    435e:	be 00 00 00 00       	mov    $0x0,%esi
    4363:	bf 01 00 00 00       	mov    $0x1,%edi
    4368:	e8 39 fe ff ff       	call   41a6 <_ZN3tbb6detail2d118task_group_context11make_traitsENS2_9kind_typeEm>
    436d:	89 c1                	mov    %eax,%ecx
    436f:	48 8b 55 f0          	mov    -0x10(%rbp),%rdx
    4373:	48 8b 45 f8          	mov    -0x8(%rbp),%rax
    4377:	89 ce                	mov    %ecx,%esi
    4379:	48 89 c7             	mov    %rax,%rdi
    437c:	e8 cf fd ff ff       	call   4150 <_ZN3tbb6detail2d118task_group_contextC1ENS2_14context_traitsENS0_2d021string_resource_indexE>
    4381:	90                   	nop
    4382:	c9                   	leave  
    4383:	c3                   	ret    

0000000000004384 <_ZN3tbb6detail2d118task_group_contextD1Ev>:
    4384:	f3 0f 1e fa          	endbr64 
    4388:	55                   	push   %rbp
    4389:	48 89 e5             	mov    %rsp,%rbp
    438c:	48 83 ec 10          	sub    $0x10,%rsp
    4390:	48 89 7d f8          	mov    %rdi,-0x8(%rbp)
    4394:	48 8b 45 f8          	mov    -0x8(%rbp),%rax
    4398:	48 89 c7             	mov    %rax,%rdi
    439b:	e8 1e ff ff ff       	call   42be <_ZNK3tbb6detail2d118task_group_context8is_proxyEv>
    43a0:	83 f0 01             	xor    $0x1,%eax
    43a3:	84 c0                	test   %al,%al
    43a5:	74 0c                	je     43b3 <_ZN3tbb6detail2d118task_group_contextD1Ev+0x2f>
    43a7:	48 8b 45 f8          	mov    -0x8(%rbp),%rax
    43ab:	48 89 c7             	mov    %rax,%rdi
    43ae:	e8 6d df ff ff       	call   2320 <_ZN3tbb6detail2r17destroyERNS0_2d118task_group_contextE@plt>
    43b3:	90                   	nop
    43b4:	c9                   	leave  
    43b5:	c3                   	ret    

00000000000043b6 <_ZN3tbb6detail2d118task_group_context5resetEv>:
    43b6:	f3 0f 1e fa          	endbr64 
    43ba:	55                   	push   %rbp
    43bb:	48 89 e5             	mov    %rsp,%rbp
    43be:	48 83 ec 10          	sub    $0x10,%rsp
    43c2:	48 89 7d f8          	mov    %rdi,-0x8(%rbp)
    43c6:	48 8b 45 f8          	mov    -0x8(%rbp),%rax
    43ca:	48 89 c7             	mov    %rax,%rdi
    43cd:	e8 18 ff ff ff       	call   42ea <_ZN3tbb6detail2d118task_group_context14actual_contextEv>
    43d2:	48 89 c7             	mov    %rax,%rdi
    43d5:	e8 a6 de ff ff       	call   2280 <_ZN3tbb6detail2r15resetERNS0_2d118task_group_contextE@plt>
    43da:	90                   	nop
    43db:	c9                   	leave  
    43dc:	c3                   	ret    
    43dd:	90                   	nop

00000000000043de <_ZN3tbb6detail2d118task_group_context28is_group_execution_cancelledEv>:
    43de:	f3 0f 1e fa          	endbr64 
    43e2:	55                   	push   %rbp
    43e3:	48 89 e5             	mov    %rsp,%rbp
    43e6:	48 83 ec 10          	sub    $0x10,%rsp
    43ea:	48 89 7d f8          	mov    %rdi,-0x8(%rbp)
    43ee:	48 8b 45 f8          	mov    -0x8(%rbp),%rax
    43f2:	48 89 c7             	mov    %rax,%rdi
    43f5:	e8 f0 fe ff ff       	call   42ea <_ZN3tbb6detail2d118task_group_context14actual_contextEv>
    43fa:	48 89 c7             	mov    %rax,%rdi
    43fd:	e8 be df ff ff       	call   23c0 <_ZN3tbb6detail2r128is_group_execution_cancelledERNS0_2d118task_group_contextE@plt>
    4402:	c9                   	leave  
    4403:	c3                   	ret    

0000000000004404 <_ZNK3tbb6detail2d118task_group_context6traitsEv>:
    4404:	f3 0f 1e fa          	endbr64 
    4408:	55                   	push   %rbp
    4409:	48 89 e5             	mov    %rsp,%rbp
    440c:	48 83 ec 20          	sub    $0x20,%rsp
    4410:	48 89 7d e8          	mov    %rdi,-0x18(%rbp)
    4414:	48 c7 45 f0 00 00 00 	movq   $0x0,-0x10(%rbp)
    441b:	00 
    441c:	48 8b 45 e8          	mov    -0x18(%rbp),%rax
    4420:	48 89 c7             	mov    %rax,%rdi
    4423:	e8 f2 fe ff ff       	call   431a <_ZNK3tbb6detail2d118task_group_context14actual_contextEv>
    4428:	48 89 45 f8          	mov    %rax,-0x8(%rbp)
    442c:	48 8b 45 f8          	mov    -0x8(%rbp),%rax
    4430:	0f b6 40 0d          	movzbl 0xd(%rax),%eax
    4434:	83 e0 01             	and    $0x1,%eax
    4437:	84 c0                	test   %al,%al
    4439:	74 07                	je     4442 <_ZNK3tbb6detail2d118task_group_context6traitsEv+0x3e>
    443b:	b8 02 00 00 00       	mov    $0x2,%eax
    4440:	eb 05                	jmp    4447 <_ZNK3tbb6detail2d118task_group_context6traitsEv+0x43>
    4442:	b8 00 00 00 00       	mov    $0x0,%eax
    4447:	48 09 45 f0          	or     %rax,-0x10(%rbp)
    444b:	48 8b 45 f8          	mov    -0x8(%rbp),%rax
    444f:	0f b6 40 0d          	movzbl 0xd(%rax),%eax
    4453:	d0 e8                	shr    %al
    4455:	83 e0 01             	and    $0x1,%eax
    4458:	84 c0                	test   %al,%al
    445a:	74 07                	je     4463 <_ZNK3tbb6detail2d118task_group_context6traitsEv+0x5f>
    445c:	b8 04 00 00 00       	mov    $0x4,%eax
    4461:	eb 05                	jmp    4468 <_ZNK3tbb6detail2d118task_group_context6traitsEv+0x64>
    4463:	b8 00 00 00 00       	mov    $0x0,%eax
    4468:	48 09 45 f0          	or     %rax,-0x10(%rbp)
    446c:	48 8b 45 f0          	mov    -0x10(%rbp),%rax
    4470:	c9                   	leave  
    4471:	c3                   	ret    

0000000000004472 <_ZN3tbb6detail2d111graph_proxyD1Ev>:
    4472:	f3 0f 1e fa          	endbr64 
    4476:	55                   	push   %rbp
    4477:	48 89 e5             	mov    %rsp,%rbp
    447a:	48 89 7d f8          	mov    %rdi,-0x8(%rbp)
    447e:	48 8d 15 63 76 00 00 	lea    0x7663(%rip),%rdx        # bae8 <__cxa_pure_virtual@CXXABI_1.3>
    4485:	48 8b 45 f8          	mov    -0x8(%rbp),%rax
    4489:	48 89 10             	mov    %rdx,(%rax)
    448c:	90                   	nop
    448d:	5d                   	pop    %rbp
    448e:	c3                   	ret    
    448f:	90                   	nop

0000000000004490 <_ZN3tbb6detail2d111graph_proxyD0Ev>:
    4490:	f3 0f 1e fa          	endbr64 
    4494:	55                   	push   %rbp
    4495:	48 89 e5             	mov    %rsp,%rbp
    4498:	48 83 ec 10          	sub    $0x10,%rsp
    449c:	48 89 7d f8          	mov    %rdi,-0x8(%rbp)
    44a0:	48 8b 45 f8          	mov    -0x8(%rbp),%rax
    44a4:	48 89 c7             	mov    %rax,%rdi
    44a7:	e8 c6 ff ff ff       	call   4472 <_ZN3tbb6detail2d111graph_proxyD1Ev>
    44ac:	48 8b 45 f8          	mov    -0x8(%rbp),%rax
    44b0:	be 08 00 00 00       	mov    $0x8,%esi
    44b5:	48 89 c7             	mov    %rax,%rdi
    44b8:	e8 53 de ff ff       	call   2310 <_ZdlPvm@plt>
    44bd:	c9                   	leave  
    44be:	c3                   	ret    
    44bf:	90                   	nop

00000000000044c0 <_ZZN3tbb6detail2d15graph12wait_for_allEvENKUlvE_clEv>:
    44c0:	f3 0f 1e fa          	endbr64 
    44c4:	55                   	push   %rbp
    44c5:	48 89 e5             	mov    %rsp,%rbp
    44c8:	53                   	push   %rbx
    44c9:	48 83 ec 28          	sub    $0x28,%rsp
    44cd:	48 89 7d d8          	mov    %rdi,-0x28(%rbp)
    44d1:	64 48 8b 04 25 28 00 	mov    %fs:0x28,%rax
    44d8:	00 00 
    44da:	48 89 45 e8          	mov    %rax,-0x18(%rbp)
    44de:	31 c0                	xor    %eax,%eax
    44e0:	48 8b 45 d8          	mov    -0x28(%rbp),%rax
    44e4:	48 8b 00             	mov    (%rax),%rax
    44e7:	48 8b 40 40          	mov    0x40(%rax),%rax
    44eb:	48 8b 55 d8          	mov    -0x28(%rbp),%rdx
    44ef:	48 8b 12             	mov    (%rdx),%rdx
    44f2:	48 89 55 e0          	mov    %rdx,-0x20(%rbp)
    44f6:	48 8d 55 e0          	lea    -0x20(%rbp),%rdx
    44fa:	48 89 d6             	mov    %rdx,%rsi
    44fd:	48 89 c7             	mov    %rax,%rdi
    4500:	e8 47 08 00 00       	call   4d4c <_ZN3tbb6detail2d110task_arena7executeIZZNS1_5graph12wait_for_allEvENKUlvE_clEvEUlvE_EEDTclfp_EEOT_>
    4505:	48 8b 45 d8          	mov    -0x28(%rbp),%rax
    4509:	48 8b 00             	mov    (%rax),%rax
    450c:	48 8b 40 18          	mov    0x18(%rax),%rax
    4510:	48 8b 55 d8          	mov    -0x28(%rbp),%rdx
    4514:	48 8b 1a             	mov    (%rdx),%rbx
    4517:	48 89 c7             	mov    %rax,%rdi
    451a:	e8 bf fe ff ff       	call   43de <_ZN3tbb6detail2d118task_group_context28is_group_execution_cancelledEv>
    451f:	88 43 21             	mov    %al,0x21(%rbx)
    4522:	90                   	nop
    4523:	48 8b 45 e8          	mov    -0x18(%rbp),%rax
    4527:	64 48 2b 04 25 28 00 	sub    %fs:0x28,%rax
    452e:	00 00 
    4530:	74 05                	je     4537 <_ZZN3tbb6detail2d15graph12wait_for_allEvENKUlvE_clEv+0x77>
    4532:	e8 19 de ff ff       	call   2350 <__stack_chk_fail@plt>
    4537:	48 8b 5d f8          	mov    -0x8(%rbp),%rbx
    453b:	c9                   	leave  
    453c:	c3                   	ret    
    453d:	90                   	nop

000000000000453e <_ZZZN3tbb6detail2d15graph12wait_for_allEvENKUlvE_clEvENKUlvE_clEv>:
    453e:	f3 0f 1e fa          	endbr64 
    4542:	55                   	push   %rbp
    4543:	48 89 e5             	mov    %rsp,%rbp
    4546:	48 83 ec 10          	sub    $0x10,%rsp
    454a:	48 89 7d f8          	mov    %rdi,-0x8(%rbp)
    454e:	48 8b 45 f8          	mov    -0x8(%rbp),%rax
    4552:	48 8b 00             	mov    (%rax),%rax
    4555:	48 8b 40 18          	mov    0x18(%rax),%rax
    4559:	48 8b 55 f8          	mov    -0x8(%rbp),%rdx
    455d:	48 8b 12             	mov    (%rdx),%rdx
    4560:	48 83 c2 08          	add    $0x8,%rdx
    4564:	48 89 c6             	mov    %rax,%rsi
    4567:	48 89 d7             	mov    %rdx,%rdi
    456a:	e8 2a f9 ff ff       	call   3e99 <_ZN3tbb6detail2d14waitERNS1_12wait_contextERNS1_18task_group_contextE>
    456f:	90                   	nop
    4570:	c9                   	leave  
    4571:	c3                   	ret    

0000000000004572 <_ZZN3tbb6detail2d15graph12wait_for_allEvENKUlvE0_clEv>:
    4572:	f3 0f 1e fa          	endbr64 
    4576:	55                   	push   %rbp
    4577:	48 89 e5             	mov    %rsp,%rbp
    457a:	48 83 ec 10          	sub    $0x10,%rsp
    457e:	48 89 7d f8          	mov    %rdi,-0x8(%rbp)
    4582:	48 8b 45 f8          	mov    -0x8(%rbp),%rax
    4586:	48 8b 00             	mov    (%rax),%rax
    4589:	48 8b 40 18          	mov    0x18(%rax),%rax
    458d:	48 89 c7             	mov    %rax,%rdi
    4590:	e8 21 fe ff ff       	call   43b6 <_ZN3tbb6detail2d118task_group_context5resetEv>
    4595:	48 8b 45 f8          	mov    -0x8(%rbp),%rax
    4599:	48 8b 00             	mov    (%rax),%rax
    459c:	c6 40 22 01          	movb   $0x1,0x22(%rax)
    45a0:	48 8b 45 f8          	mov    -0x8(%rbp),%rax
    45a4:	48 8b 00             	mov    (%rax),%rax
    45a7:	c6 40 21 01          	movb   $0x1,0x21(%rax)
    45ab:	90                   	nop
    45ac:	c9                   	leave  
    45ad:	c3                   	ret    

00000000000045ae <_ZN3tbb6detail2d15graph12wait_for_allEv>:
    45ae:	f3 0f 1e fa          	endbr64 
    45b2:	55                   	push   %rbp
    45b3:	48 89 e5             	mov    %rsp,%rbp
    45b6:	48 83 ec 20          	sub    $0x20,%rsp
    45ba:	48 89 7d e8          	mov    %rdi,-0x18(%rbp)
    45be:	64 48 8b 04 25 28 00 	mov    %fs:0x28,%rax
    45c5:	00 00 
    45c7:	48 89 45 f8          	mov    %rax,-0x8(%rbp)
    45cb:	31 c0                	xor    %eax,%eax
    45cd:	48 8b 45 e8          	mov    -0x18(%rbp),%rax
    45d1:	c6 40 21 00          	movb   $0x0,0x21(%rax)
    45d5:	48 8b 45 e8          	mov    -0x18(%rbp),%rax
    45d9:	c6 40 22 00          	movb   $0x0,0x22(%rax)
    45dd:	48 8b 45 e8          	mov    -0x18(%rbp),%rax
    45e1:	48 89 c7             	mov    %rax,%rdi
    45e4:	e8 8d 07 00 00       	call   4d76 <_ZN3tbb6detail2d08try_callIZNS0_2d15graph12wait_for_allEvEUlvE_EENS1_14try_call_proxyIT_EES7_>
    45e9:	48 89 45 f0          	mov    %rax,-0x10(%rbp)
    45ed:	48 8b 55 e8          	mov    -0x18(%rbp),%rdx
    45f1:	48 8d 45 f0          	lea    -0x10(%rbp),%rax
    45f5:	48 89 d6             	mov    %rdx,%rsi
    45f8:	48 89 c7             	mov    %rax,%rdi
    45fb:	e8 c2 07 00 00       	call   4dc2 <_ZN3tbb6detail2d014try_call_proxyIZNS0_2d15graph12wait_for_allEvEUlvE_E12on_exceptionIZNS4_12wait_for_allEvEUlvE0_EEvT_>
    4600:	48 8b 45 e8          	mov    -0x18(%rbp),%rax
    4604:	48 8b 40 18          	mov    0x18(%rax),%rax
    4608:	48 89 c7             	mov    %rax,%rdi
    460b:	e8 f4 fd ff ff       	call   4404 <_ZNK3tbb6detail2d118task_group_context6traitsEv>
    4610:	83 e0 04             	and    $0x4,%eax
    4613:	48 85 c0             	test   %rax,%rax
    4616:	0f 94 c0             	sete   %al
    4619:	84 c0                	test   %al,%al
    461b:	74 10                	je     462d <_ZN3tbb6detail2d15graph12wait_for_allEv+0x7f>
    461d:	48 8b 45 e8          	mov    -0x18(%rbp),%rax
    4621:	48 8b 40 18          	mov    0x18(%rax),%rax
    4625:	48 89 c7             	mov    %rax,%rdi
    4628:	e8 89 fd ff ff       	call   43b6 <_ZN3tbb6detail2d118task_group_context5resetEv>
    462d:	90                   	nop
    462e:	48 8b 45 f8          	mov    -0x8(%rbp),%rax
    4632:	64 48 2b 04 25 28 00 	sub    %fs:0x28,%rax
    4639:	00 00 
    463b:	74 05                	je     4642 <_ZN3tbb6detail2d15graph12wait_for_allEv+0x94>
    463d:	e8 0e dd ff ff       	call   2350 <__stack_chk_fail@plt>
    4642:	c9                   	leave  
    4643:	c3                   	ret    

0000000000004644 <_ZN3tbb6detail2d1L16fgt_reserve_waitEPv>:
    4644:	55                   	push   %rbp
    4645:	48 89 e5             	mov    %rsp,%rbp
    4648:	48 89 7d f8          	mov    %rdi,-0x8(%rbp)
    464c:	90                   	nop
    464d:	5d                   	pop    %rbp
    464e:	c3                   	ret    

000000000000464f <_ZN3tbb6detail2d1L16fgt_release_waitEPv>:
    464f:	55                   	push   %rbp
    4650:	48 89 e5             	mov    %rsp,%rbp
    4653:	48 89 7d f8          	mov    %rdi,-0x8(%rbp)
    4657:	90                   	nop
    4658:	5d                   	pop    %rbp
    4659:	c3                   	ret    

000000000000465a <_ZN3tbb6detail2d125concurrent_priority_queueIPNS1_10graph_taskENS1_21graph_task_comparatorENS1_23cache_aligned_allocatorIS4_EEED1Ev>:
    465a:	f3 0f 1e fa          	endbr64 
    465e:	55                   	push   %rbp
    465f:	48 89 e5             	mov    %rsp,%rbp
    4662:	48 83 ec 10          	sub    $0x10,%rsp
    4666:	48 89 7d f8          	mov    %rdi,-0x8(%rbp)
    466a:	48 8b 45 f8          	mov    -0x8(%rbp),%rax
    466e:	48 05 00 01 00 00    	add    $0x100,%rax
    4674:	48 89 c7             	mov    %rax,%rdi
    4677:	e8 dc 07 00 00       	call   4e58 <_ZNSt6vectorIPN3tbb6detail2d110graph_taskENS2_23cache_aligned_allocatorIS4_EEED1Ev>
    467c:	90                   	nop
    467d:	c9                   	leave  
    467e:	c3                   	ret    
    467f:	90                   	nop

0000000000004680 <_ZN3tbb6detail2d15graphD1Ev>:
    4680:	f3 0f 1e fa          	endbr64 
    4684:	55                   	push   %rbp
    4685:	48 89 e5             	mov    %rsp,%rbp
    4688:	53                   	push   %rbx
    4689:	48 83 ec 18          	sub    $0x18,%rsp
    468d:	48 89 7d e8          	mov    %rdi,-0x18(%rbp)
    4691:	48 8d 15 f8 73 00 00 	lea    0x73f8(%rip),%rdx        # ba90 <_ZTVN3tbb6detail2d15graphE+0x10>
    4698:	48 8b 45 e8          	mov    -0x18(%rbp),%rax
    469c:	48 89 10             	mov    %rdx,(%rax)
    469f:	48 8b 45 e8          	mov    -0x18(%rbp),%rax
    46a3:	48 89 c7             	mov    %rax,%rdi
    46a6:	e8 03 ff ff ff       	call   45ae <_ZN3tbb6detail2d15graph12wait_for_allEv>
    46ab:	48 8b 45 e8          	mov    -0x18(%rbp),%rax
    46af:	0f b6 40 20          	movzbl 0x20(%rax),%eax
    46b3:	84 c0                	test   %al,%al
    46b5:	74 20                	je     46d7 <_ZN3tbb6detail2d15graphD1Ev+0x57>
    46b7:	48 8b 45 e8          	mov    -0x18(%rbp),%rax
    46bb:	48 8b 40 18          	mov    0x18(%rax),%rax
    46bf:	48 89 c7             	mov    %rax,%rdi
    46c2:	e8 bd fc ff ff       	call   4384 <_ZN3tbb6detail2d118task_group_contextD1Ev>
    46c7:	48 8b 45 e8          	mov    -0x18(%rbp),%rax
    46cb:	48 8b 40 18          	mov    0x18(%rax),%rax
    46cf:	48 89 c7             	mov    %rax,%rdi
    46d2:	e8 f9 dc ff ff       	call   23d0 <_ZN3tbb6detail2r124cache_aligned_deallocateEPv@plt>
    46d7:	48 8b 45 e8          	mov    -0x18(%rbp),%rax
    46db:	48 8b 58 40          	mov    0x40(%rax),%rbx
    46df:	48 85 db             	test   %rbx,%rbx
    46e2:	74 15                	je     46f9 <_ZN3tbb6detail2d15graphD1Ev+0x79>
    46e4:	48 89 df             	mov    %rbx,%rdi
    46e7:	e8 ae f9 ff ff       	call   409a <_ZN3tbb6detail2d110task_arenaD1Ev>
    46ec:	be 30 00 00 00       	mov    $0x30,%esi
    46f1:	48 89 df             	mov    %rbx,%rdi
    46f4:	e8 17 dc ff ff       	call   2310 <_ZdlPvm@plt>
    46f9:	48 8b 45 e8          	mov    -0x18(%rbp),%rax
    46fd:	48 83 c0 48          	add    $0x48,%rax
    4701:	48 89 c7             	mov    %rax,%rdi
    4704:	e8 51 ff ff ff       	call   465a <_ZN3tbb6detail2d125concurrent_priority_queueIPNS1_10graph_taskENS1_21graph_task_comparatorENS1_23cache_aligned_allocatorIS4_EEED1Ev>
    4709:	48 8b 45 e8          	mov    -0x18(%rbp),%rax
    470d:	48 83 c0 08          	add    $0x8,%rax
    4711:	48 89 c7             	mov    %rax,%rdi
    4714:	e8 d3 f5 ff ff       	call   3cec <_ZN3tbb6detail2d112wait_contextD1Ev>
    4719:	48 8b 45 e8          	mov    -0x18(%rbp),%rax
    471d:	48 89 c7             	mov    %rax,%rdi
    4720:	e8 4d fd ff ff       	call   4472 <_ZN3tbb6detail2d111graph_proxyD1Ev>
    4725:	90                   	nop
    4726:	48 8b 5d f8          	mov    -0x8(%rbp),%rbx
    472a:	c9                   	leave  
    472b:	c3                   	ret    

000000000000472c <_ZN3tbb6detail2d15graphD0Ev>:
    472c:	f3 0f 1e fa          	endbr64 
    4730:	55                   	push   %rbp
    4731:	48 89 e5             	mov    %rsp,%rbp
    4734:	48 83 ec 10          	sub    $0x10,%rsp
    4738:	48 89 7d f8          	mov    %rdi,-0x8(%rbp)
    473c:	48 8b 45 f8          	mov    -0x8(%rbp),%rax
    4740:	48 89 c7             	mov    %rax,%rdi
    4743:	e8 38 ff ff ff       	call   4680 <_ZN3tbb6detail2d15graphD1Ev>
    4748:	48 8b 45 f8          	mov    -0x8(%rbp),%rax
    474c:	be 60 01 00 00       	mov    $0x160,%esi
    4751:	48 89 c7             	mov    %rax,%rdi
    4754:	e8 b7 db ff ff       	call   2310 <_ZdlPvm@plt>
    4759:	c9                   	leave  
    475a:	c3                   	ret    
    475b:	90                   	nop

000000000000475c <_ZN3tbb6detail2d15graph12reserve_waitEv>:
    475c:	f3 0f 1e fa          	endbr64 
    4760:	55                   	push   %rbp
    4761:	48 89 e5             	mov    %rsp,%rbp
    4764:	48 83 ec 10          	sub    $0x10,%rsp
    4768:	48 89 7d f8          	mov    %rdi,-0x8(%rbp)
    476c:	48 8b 45 f8          	mov    -0x8(%rbp),%rax
    4770:	48 83 c0 08          	add    $0x8,%rax
    4774:	be 01 00 00 00       	mov    $0x1,%esi
    4779:	48 89 c7             	mov    %rax,%rdi
    477c:	e8 7b f5 ff ff       	call   3cfc <_ZN3tbb6detail2d112wait_context7reserveEj>
    4781:	48 8b 45 f8          	mov    -0x8(%rbp),%rax
    4785:	48 89 c7             	mov    %rax,%rdi
    4788:	e8 b7 fe ff ff       	call   4644 <_ZN3tbb6detail2d1L16fgt_reserve_waitEPv>
    478d:	90                   	nop
    478e:	c9                   	leave  
    478f:	c3                   	ret    

0000000000004790 <_ZN3tbb6detail2d15graph12release_waitEv>:
    4790:	f3 0f 1e fa          	endbr64 
    4794:	55                   	push   %rbp
    4795:	48 89 e5             	mov    %rsp,%rbp
    4798:	48 83 ec 10          	sub    $0x10,%rsp
    479c:	48 89 7d f8          	mov    %rdi,-0x8(%rbp)
    47a0:	48 8b 45 f8          	mov    -0x8(%rbp),%rax
    47a4:	48 89 c7             	mov    %rax,%rdi
    47a7:	e8 a3 fe ff ff       	call   464f <_ZN3tbb6detail2d1L16fgt_release_waitEPv>
    47ac:	48 8b 45 f8          	mov    -0x8(%rbp),%rax
    47b0:	48 83 c0 08          	add    $0x8,%rax
    47b4:	be 01 00 00 00       	mov    $0x1,%esi
    47b9:	48 89 c7             	mov    %rax,%rdi
    47bc:	e8 63 f5 ff ff       	call   3d24 <_ZN3tbb6detail2d112wait_context7releaseEj>
    47c1:	90                   	nop
    47c2:	c9                   	leave  
    47c3:	c3                   	ret    

00000000000047c4 <_ZN3tbb6detail2d136get_initial_auto_partitioner_divisorEv>:
    47c4:	f3 0f 1e fa          	endbr64 
    47c8:	55                   	push   %rbp
    47c9:	48 89 e5             	mov    %rsp,%rbp
    47cc:	48 83 ec 10          	sub    $0x10,%rsp
    47d0:	48 c7 45 f8 04 00 00 	movq   $0x4,-0x8(%rbp)
    47d7:	00 
    47d8:	e8 38 f9 ff ff       	call   4115 <_ZN3tbb6detail2d115max_concurrencyEv>
    47dd:	48 98                	cltq   
    47df:	48 c1 e0 02          	shl    $0x2,%rax
    47e3:	c9                   	leave  
    47e4:	c3                   	ret    
    47e5:	90                   	nop

00000000000047e6 <_ZN3tbb6detail2d14nodeC1EPS2_i>:
    47e6:	f3 0f 1e fa          	endbr64 
    47ea:	55                   	push   %rbp
    47eb:	48 89 e5             	mov    %rsp,%rbp
    47ee:	48 83 ec 20          	sub    $0x20,%rsp
    47f2:	48 89 7d f8          	mov    %rdi,-0x8(%rbp)
    47f6:	48 89 75 f0          	mov    %rsi,-0x10(%rbp)
    47fa:	89 55 ec             	mov    %edx,-0x14(%rbp)
    47fd:	48 8b 45 f8          	mov    -0x8(%rbp),%rax
    4801:	48 8b 55 f0          	mov    -0x10(%rbp),%rdx
    4805:	48 89 10             	mov    %rdx,(%rax)
    4808:	48 8b 45 f8          	mov    -0x8(%rbp),%rax
    480c:	48 8d 50 08          	lea    0x8(%rax),%rdx
    4810:	8b 45 ec             	mov    -0x14(%rbp),%eax
    4813:	89 c6                	mov    %eax,%esi
    4815:	48 89 d7             	mov    %rdx,%rdi
    4818:	e8 a5 f2 ff ff       	call   3ac2 <_ZNSt6atomicIiEC1Ei>
    481d:	90                   	nop
    481e:	c9                   	leave  
    481f:	c3                   	ret    

0000000000004820 <_ZN3tbb6detail2d19wait_nodeC1Ev>:
    4820:	f3 0f 1e fa          	endbr64 
    4824:	55                   	push   %rbp
    4825:	48 89 e5             	mov    %rsp,%rbp
    4828:	48 83 ec 10          	sub    $0x10,%rsp
    482c:	48 89 7d f8          	mov    %rdi,-0x8(%rbp)
    4830:	48 8b 45 f8          	mov    -0x8(%rbp),%rax
    4834:	ba 01 00 00 00       	mov    $0x1,%edx
    4839:	be 00 00 00 00       	mov    $0x0,%esi
    483e:	48 89 c7             	mov    %rax,%rdi
    4841:	e8 a0 ff ff ff       	call   47e6 <_ZN3tbb6detail2d14nodeC1EPS2_i>
    4846:	48 8b 45 f8          	mov    -0x8(%rbp),%rax
    484a:	48 83 c0 10          	add    $0x10,%rax
    484e:	be 01 00 00 00       	mov    $0x1,%esi
    4853:	48 89 c7             	mov    %rax,%rdi
    4856:	e8 4d f4 ff ff       	call   3ca8 <_ZN3tbb6detail2d112wait_contextC1Ej>
    485b:	90                   	nop
    485c:	c9                   	leave  
    485d:	c3                   	ret    

000000000000485e <_ZN3tbb6detail2d19tree_nodeC1EPNS1_4nodeEiRNS1_22small_object_allocatorE>:
    485e:	f3 0f 1e fa          	endbr64 
    4862:	55                   	push   %rbp
    4863:	48 89 e5             	mov    %rsp,%rbp
    4866:	48 83 ec 20          	sub    $0x20,%rsp
    486a:	48 89 7d f8          	mov    %rdi,-0x8(%rbp)
    486e:	48 89 75 f0          	mov    %rsi,-0x10(%rbp)
    4872:	89 55 ec             	mov    %edx,-0x14(%rbp)
    4875:	48 89 4d e0          	mov    %rcx,-0x20(%rbp)
    4879:	48 8b 45 f8          	mov    -0x8(%rbp),%rax
    487d:	8b 55 ec             	mov    -0x14(%rbp),%edx
    4880:	48 8b 4d f0          	mov    -0x10(%rbp),%rcx
    4884:	48 89 ce             	mov    %rcx,%rsi
    4887:	48 89 c7             	mov    %rax,%rdi
    488a:	e8 57 ff ff ff       	call   47e6 <_ZN3tbb6detail2d14nodeC1EPS2_i>
    488f:	48 8b 45 f8          	mov    -0x8(%rbp),%rax
    4893:	48 8b 55 e0          	mov    -0x20(%rbp),%rdx
    4897:	48 8b 12             	mov    (%rdx),%rdx
    489a:	48 89 50 10          	mov    %rdx,0x10(%rax)
    489e:	48 8b 45 f8          	mov    -0x8(%rbp),%rax
    48a2:	48 83 c0 18          	add    $0x18,%rax
    48a6:	be 00 00 00 00       	mov    $0x0,%esi
    48ab:	48 89 c7             	mov    %rax,%rdi
    48ae:	e8 51 f1 ff ff       	call   3a04 <_ZNSt6atomicIbEC1Eb>
    48b3:	90                   	nop
    48b4:	c9                   	leave  
    48b5:	c3                   	ret    

00000000000048b6 <_ZN3tbb6detail2d19tree_node4joinEPNS1_18task_group_contextE>:
    48b6:	f3 0f 1e fa          	endbr64 
    48ba:	55                   	push   %rbp
    48bb:	48 89 e5             	mov    %rsp,%rbp
    48be:	48 89 7d f8          	mov    %rdi,-0x8(%rbp)
    48c2:	48 89 75 f0          	mov    %rsi,-0x10(%rbp)
    48c6:	90                   	nop
    48c7:	5d                   	pop    %rbp
    48c8:	c3                   	ret    
    48c9:	90                   	nop

00000000000048ca <_ZN3tbb6detail2d119auto_partition_typeC1ERKNS1_16auto_partitionerE>:
    48ca:	f3 0f 1e fa          	endbr64 
    48ce:	55                   	push   %rbp
    48cf:	48 89 e5             	mov    %rsp,%rbp
    48d2:	48 83 ec 10          	sub    $0x10,%rsp
    48d6:	48 89 7d f8          	mov    %rdi,-0x8(%rbp)
    48da:	48 89 75 f0          	mov    %rsi,-0x10(%rbp)
    48de:	48 8b 45 f8          	mov    -0x8(%rbp),%rax
    48e2:	48 89 c7             	mov    %rax,%rdi
    48e5:	e8 b6 05 00 00       	call   4ea0 <_ZN3tbb6detail2d122dynamic_grainsize_modeINS1_13adaptive_modeINS1_19auto_partition_typeEEEEC1Ev>
    48ea:	48 8b 45 f8          	mov    -0x8(%rbp),%rax
    48ee:	48 8b 00             	mov    (%rax),%rax
    48f1:	48 8d 14 00          	lea    (%rax,%rax,1),%rdx
    48f5:	48 8b 45 f8          	mov    -0x8(%rbp),%rax
    48f9:	48 89 10             	mov    %rdx,(%rax)
    48fc:	90                   	nop
    48fd:	c9                   	leave  
    48fe:	c3                   	ret    
    48ff:	90                   	nop

0000000000004900 <_ZN3tbb6detail2d119auto_partition_typeC1ERS2_NS0_2d05splitE>:
    4900:	f3 0f 1e fa          	endbr64 
    4904:	55                   	push   %rbp
    4905:	48 89 e5             	mov    %rsp,%rbp
    4908:	48 83 ec 10          	sub    $0x10,%rsp
    490c:	48 89 7d f8          	mov    %rdi,-0x8(%rbp)
    4910:	48 89 75 f0          	mov    %rsi,-0x10(%rbp)
    4914:	48 8b 45 f8          	mov    -0x8(%rbp),%rax
    4918:	48 8b 55 f0          	mov    -0x10(%rbp),%rdx
    491c:	48 89 d6             	mov    %rdx,%rsi
    491f:	48 89 c7             	mov    %rax,%rdi
    4922:	e8 ab 05 00 00       	call   4ed2 <_ZN3tbb6detail2d122dynamic_grainsize_modeINS1_13adaptive_modeINS1_19auto_partition_typeEEEEC1ERS6_NS0_2d05splitE>
    4927:	90                   	nop
    4928:	c9                   	leave  
    4929:	c3                   	ret    

000000000000492a <_ZN3tbb6detail2d119auto_partition_type12is_divisibleEv>:
    492a:	f3 0f 1e fa          	endbr64 
    492e:	55                   	push   %rbp
    492f:	48 89 e5             	mov    %rsp,%rbp
    4932:	48 89 7d f8          	mov    %rdi,-0x8(%rbp)
    4936:	48 8b 45 f8          	mov    -0x8(%rbp),%rax
    493a:	48 8b 00             	mov    (%rax),%rax
    493d:	48 83 f8 01          	cmp    $0x1,%rax
    4941:	76 07                	jbe    494a <_ZN3tbb6detail2d119auto_partition_type12is_divisibleEv+0x20>
    4943:	b8 01 00 00 00       	mov    $0x1,%eax
    4948:	eb 41                	jmp    498b <_ZN3tbb6detail2d119auto_partition_type12is_divisibleEv+0x61>
    494a:	48 8b 45 f8          	mov    -0x8(%rbp),%rax
    494e:	48 8b 00             	mov    (%rax),%rax
    4951:	48 85 c0             	test   %rax,%rax
    4954:	74 30                	je     4986 <_ZN3tbb6detail2d119auto_partition_type12is_divisibleEv+0x5c>
    4956:	48 8b 45 f8          	mov    -0x8(%rbp),%rax
    495a:	0f b6 40 0c          	movzbl 0xc(%rax),%eax
    495e:	84 c0                	test   %al,%al
    4960:	74 24                	je     4986 <_ZN3tbb6detail2d119auto_partition_type12is_divisibleEv+0x5c>
    4962:	48 8b 45 f8          	mov    -0x8(%rbp),%rax
    4966:	0f b6 40 0c          	movzbl 0xc(%rax),%eax
    496a:	8d 50 ff             	lea    -0x1(%rax),%edx
    496d:	48 8b 45 f8          	mov    -0x8(%rbp),%rax
    4971:	88 50 0c             	mov    %dl,0xc(%rax)
    4974:	48 8b 45 f8          	mov    -0x8(%rbp),%rax
    4978:	48 c7 00 00 00 00 00 	movq   $0x0,(%rax)
    497f:	b8 01 00 00 00       	mov    $0x1,%eax
    4984:	eb 05                	jmp    498b <_ZN3tbb6detail2d119auto_partition_type12is_divisibleEv+0x61>
    4986:	b8 00 00 00 00       	mov    $0x0,%eax
    498b:	5d                   	pop    %rbp
    498c:	c3                   	ret    
    498d:	90                   	nop

000000000000498e <_ZN3tbb6detail2d119auto_partition_type10spawn_taskERNS1_4taskERNS1_18task_group_contextE>:
    498e:	f3 0f 1e fa          	endbr64 
    4992:	55                   	push   %rbp
    4993:	48 89 e5             	mov    %rsp,%rbp
    4996:	48 83 ec 20          	sub    $0x20,%rsp
    499a:	48 89 7d f8          	mov    %rdi,-0x8(%rbp)
    499e:	48 89 75 f0          	mov    %rsi,-0x10(%rbp)
    49a2:	48 89 55 e8          	mov    %rdx,-0x18(%rbp)
    49a6:	48 8b 55 e8          	mov    -0x18(%rbp),%rdx
    49aa:	48 8b 45 f0          	mov    -0x10(%rbp),%rax
    49ae:	48 89 d6             	mov    %rdx,%rsi
    49b1:	48 89 c7             	mov    %rax,%rdi
    49b4:	e8 4c f4 ff ff       	call   3e05 <_ZN3tbb6detail2d15spawnERNS1_4taskERNS1_18task_group_contextE>
    49b9:	90                   	nop
    49ba:	c9                   	leave  
    49bb:	c3                   	ret    

00000000000049bc <_ZN3tbb6detail2d116auto_partitionerC1Ev>:
    49bc:	f3 0f 1e fa          	endbr64 
    49c0:	55                   	push   %rbp
    49c1:	48 89 e5             	mov    %rsp,%rbp
    49c4:	48 89 7d f8          	mov    %rdi,-0x8(%rbp)
    49c8:	90                   	nop
    49c9:	5d                   	pop    %rbp
    49ca:	c3                   	ret    
    49cb:	90                   	nop

00000000000049cc <_ZNSt13__atomic_baseIiEC1Ei>:
    49cc:	f3 0f 1e fa          	endbr64 
    49d0:	55                   	push   %rbp
    49d1:	48 89 e5             	mov    %rsp,%rbp
    49d4:	48 89 7d f8          	mov    %rdi,-0x8(%rbp)
    49d8:	89 75 f4             	mov    %esi,-0xc(%rbp)
    49db:	48 8b 45 f8          	mov    -0x8(%rbp),%rax
    49df:	8b 55 f4             	mov    -0xc(%rbp),%edx
    49e2:	89 10                	mov    %edx,(%rax)
    49e4:	90                   	nop
    49e5:	5d                   	pop    %rbp
    49e6:	c3                   	ret    
    49e7:	90                   	nop

00000000000049e8 <_ZNSt13__atomic_baseImEC1Em>:
    49e8:	f3 0f 1e fa          	endbr64 
    49ec:	55                   	push   %rbp
    49ed:	48 89 e5             	mov    %rsp,%rbp
    49f0:	48 89 7d f8          	mov    %rdi,-0x8(%rbp)
    49f4:	48 89 75 f0          	mov    %rsi,-0x10(%rbp)
    49f8:	48 8b 45 f8          	mov    -0x8(%rbp),%rax
    49fc:	48 8b 55 f0          	mov    -0x10(%rbp),%rdx
    4a00:	48 89 10             	mov    %rdx,(%rax)
    4a03:	90                   	nop
    4a04:	5d                   	pop    %rbp
    4a05:	c3                   	ret    

0000000000004a06 <_ZSt7forwardIiEOT_RNSt16remove_referenceIS0_E4typeE>:
    4a06:	f3 0f 1e fa          	endbr64 
    4a0a:	55                   	push   %rbp
    4a0b:	48 89 e5             	mov    %rsp,%rbp
    4a0e:	48 89 7d f8          	mov    %rdi,-0x8(%rbp)
    4a12:	48 8b 45 f8          	mov    -0x8(%rbp),%rax
    4a16:	5d                   	pop    %rbp
    4a17:	c3                   	ret    

0000000000004a18 <_ZN3tbb6detail2d023suppress_unused_warningIJRmEEEvDpOT_>:
    4a18:	f3 0f 1e fa          	endbr64 
    4a1c:	55                   	push   %rbp
    4a1d:	48 89 e5             	mov    %rsp,%rbp
    4a20:	48 89 7d f8          	mov    %rdi,-0x8(%rbp)
    4a24:	90                   	nop
    4a25:	5d                   	pop    %rbp
    4a26:	c3                   	ret    
    4a27:	90                   	nop

0000000000004a28 <_ZNSaIiEC1Ev>:
    4a28:	f3 0f 1e fa          	endbr64 
    4a2c:	55                   	push   %rbp
    4a2d:	48 89 e5             	mov    %rsp,%rbp
    4a30:	48 83 ec 10          	sub    $0x10,%rsp
    4a34:	48 89 7d f8          	mov    %rdi,-0x8(%rbp)
    4a38:	48 8b 45 f8          	mov    -0x8(%rbp),%rax
    4a3c:	48 89 c7             	mov    %rax,%rdi
    4a3f:	e8 88 05 00 00       	call   4fcc <_ZN9__gnu_cxx13new_allocatorIiEC1Ev>
    4a44:	90                   	nop
    4a45:	c9                   	leave  
    4a46:	c3                   	ret    
    4a47:	90                   	nop

0000000000004a48 <_ZNSaIiED1Ev>:
    4a48:	f3 0f 1e fa          	endbr64 
    4a4c:	55                   	push   %rbp
    4a4d:	48 89 e5             	mov    %rsp,%rbp
    4a50:	48 83 ec 10          	sub    $0x10,%rsp
    4a54:	48 89 7d f8          	mov    %rdi,-0x8(%rbp)
    4a58:	48 8b 45 f8          	mov    -0x8(%rbp),%rax
    4a5c:	48 89 c7             	mov    %rax,%rdi
    4a5f:	e8 78 05 00 00       	call   4fdc <_ZN9__gnu_cxx13new_allocatorIiED1Ev>
    4a64:	90                   	nop
    4a65:	c9                   	leave  
    4a66:	c3                   	ret    
    4a67:	90                   	nop

0000000000004a68 <_ZNSt6vectorIiSaIiEEC1EmRKS0_>:
    4a68:	f3 0f 1e fa          	endbr64 
    4a6c:	55                   	push   %rbp
    4a6d:	48 89 e5             	mov    %rsp,%rbp
    4a70:	53                   	push   %rbx
    4a71:	48 83 ec 28          	sub    $0x28,%rsp
    4a75:	48 89 7d e8          	mov    %rdi,-0x18(%rbp)
    4a79:	48 89 75 e0          	mov    %rsi,-0x20(%rbp)
    4a7d:	48 89 55 d8          	mov    %rdx,-0x28(%rbp)
    4a81:	48 8b 5d e8          	mov    -0x18(%rbp),%rbx
    4a85:	48 8b 55 d8          	mov    -0x28(%rbp),%rdx
    4a89:	48 8b 45 e0          	mov    -0x20(%rbp),%rax
    4a8d:	48 89 d6             	mov    %rdx,%rsi
    4a90:	48 89 c7             	mov    %rax,%rdi
    4a93:	e8 53 05 00 00       	call   4feb <_ZNSt6vectorIiSaIiEE17_S_check_init_lenEmRKS0_>
    4a98:	48 89 c1             	mov    %rax,%rcx
    4a9b:	48 8b 45 d8          	mov    -0x28(%rbp),%rax
    4a9f:	48 89 c2             	mov    %rax,%rdx
    4aa2:	48 89 ce             	mov    %rcx,%rsi
    4aa5:	48 89 df             	mov    %rbx,%rdi
    4aa8:	e8 c5 05 00 00       	call   5072 <_ZNSt12_Vector_baseIiSaIiEEC1EmRKS0_>
    4aad:	48 8b 55 e0          	mov    -0x20(%rbp),%rdx
    4ab1:	48 8b 45 e8          	mov    -0x18(%rbp),%rax
    4ab5:	48 89 d6             	mov    %rdx,%rsi
    4ab8:	48 89 c7             	mov    %rax,%rdi
    4abb:	e8 18 06 00 00       	call   50d8 <_ZNSt6vectorIiSaIiEE21_M_default_initializeEm>
    4ac0:	eb 1e                	jmp    4ae0 <_ZNSt6vectorIiSaIiEEC1EmRKS0_+0x78>
    4ac2:	f3 0f 1e fa          	endbr64 
    4ac6:	48 89 c3             	mov    %rax,%rbx
    4ac9:	48 8b 45 e8          	mov    -0x18(%rbp),%rax
    4acd:	48 89 c7             	mov    %rax,%rdi
    4ad0:	e8 59 00 00 00       	call   4b2e <_ZNSt12_Vector_baseIiSaIiEED1Ev>
    4ad5:	48 89 d8             	mov    %rbx,%rax
    4ad8:	48 89 c7             	mov    %rax,%rdi
    4adb:	e8 10 d9 ff ff       	call   23f0 <_Unwind_Resume@plt>
    4ae0:	48 8b 5d f8          	mov    -0x8(%rbp),%rbx
    4ae4:	c9                   	leave  
    4ae5:	c3                   	ret    

0000000000004ae6 <_ZNSt6vectorIiSaIiEED1Ev>:
    4ae6:	f3 0f 1e fa          	endbr64 
    4aea:	55                   	push   %rbp
    4aeb:	48 89 e5             	mov    %rsp,%rbp
    4aee:	48 83 ec 10          	sub    $0x10,%rsp
    4af2:	48 89 7d f8          	mov    %rdi,-0x8(%rbp)
    4af6:	48 8b 45 f8          	mov    -0x8(%rbp),%rax
    4afa:	48 89 c7             	mov    %rax,%rdi
    4afd:	e8 1a 06 00 00       	call   511c <_ZNSt12_Vector_baseIiSaIiEE19_M_get_Tp_allocatorEv>
    4b02:	48 89 c2             	mov    %rax,%rdx
    4b05:	48 8b 45 f8          	mov    -0x8(%rbp),%rax
    4b09:	48 8b 48 08          	mov    0x8(%rax),%rcx
    4b0d:	48 8b 45 f8          	mov    -0x8(%rbp),%rax
    4b11:	48 8b 00             	mov    (%rax),%rax
    4b14:	48 89 ce             	mov    %rcx,%rsi
    4b17:	48 89 c7             	mov    %rax,%rdi
    4b1a:	e8 0f 06 00 00       	call   512e <_ZSt8_DestroyIPiiEvT_S1_RSaIT0_E>
    4b1f:	48 8b 45 f8          	mov    -0x8(%rbp),%rax
    4b23:	48 89 c7             	mov    %rax,%rdi
    4b26:	e8 03 00 00 00       	call   4b2e <_ZNSt12_Vector_baseIiSaIiEED1Ev>
    4b2b:	90                   	nop
    4b2c:	c9                   	leave  
    4b2d:	c3                   	ret    

0000000000004b2e <_ZNSt12_Vector_baseIiSaIiEED1Ev>:
    4b2e:	f3 0f 1e fa          	endbr64 
    4b32:	55                   	push   %rbp
    4b33:	48 89 e5             	mov    %rsp,%rbp
    4b36:	48 83 ec 10          	sub    $0x10,%rsp
    4b3a:	48 89 7d f8          	mov    %rdi,-0x8(%rbp)
    4b3e:	48 8b 45 f8          	mov    -0x8(%rbp),%rax
    4b42:	48 8b 50 10          	mov    0x10(%rax),%rdx
    4b46:	48 8b 45 f8          	mov    -0x8(%rbp),%rax
    4b4a:	48 8b 08             	mov    (%rax),%rcx
    4b4d:	48 89 d0             	mov    %rdx,%rax
    4b50:	48 29 c8             	sub    %rcx,%rax
    4b53:	48 c1 f8 02          	sar    $0x2,%rax
    4b57:	48 89 c2             	mov    %rax,%rdx
    4b5a:	48 8b 45 f8          	mov    -0x8(%rbp),%rax
    4b5e:	48 8b 08             	mov    (%rax),%rcx
    4b61:	48 8b 45 f8          	mov    -0x8(%rbp),%rax
    4b65:	48 89 ce             	mov    %rcx,%rsi
    4b68:	48 89 c7             	mov    %rax,%rdi
    4b6b:	e8 16 06 00 00       	call   5186 <_ZNSt12_Vector_baseIiSaIiEE13_M_deallocateEPim>
    4b70:	48 8b 45 f8          	mov    -0x8(%rbp),%rax
    4b74:	48 89 c7             	mov    %rax,%rdi
    4b77:	e8 3c f4 ff ff       	call   3fb8 <_ZNSt12_Vector_baseIiSaIiEE12_Vector_implD1Ev>
    4b7c:	90                   	nop
    4b7d:	c9                   	leave  
    4b7e:	c3                   	ret    

0000000000004b7f <_ZSt11__addressofIN3tbb6detail2d013do_once_stateEEPT_RS4_>:
    4b7f:	f3 0f 1e fa          	endbr64 
    4b83:	55                   	push   %rbp
    4b84:	48 89 e5             	mov    %rsp,%rbp
    4b87:	48 89 7d f8          	mov    %rdi,-0x8(%rbp)
    4b8b:	48 8b 45 f8          	mov    -0x8(%rbp),%rax
    4b8f:	5d                   	pop    %rbp
    4b90:	c3                   	ret    
    4b91:	90                   	nop

0000000000004b92 <_ZNSt6atomicIN3tbb6detail2d013do_once_stateEE5storeES3_St12memory_order>:
    4b92:	f3 0f 1e fa          	endbr64 
    4b96:	55                   	push   %rbp
    4b97:	48 89 e5             	mov    %rsp,%rbp
    4b9a:	53                   	push   %rbx
    4b9b:	48 83 ec 18          	sub    $0x18,%rsp
    4b9f:	48 89 7d e8          	mov    %rdi,-0x18(%rbp)
    4ba3:	89 75 e4             	mov    %esi,-0x1c(%rbp)
    4ba6:	89 55 e0             	mov    %edx,-0x20(%rbp)
    4ba9:	48 8d 45 e4          	lea    -0x1c(%rbp),%rax
    4bad:	48 89 c7             	mov    %rax,%rdi
    4bb0:	e8 ca ff ff ff       	call   4b7f <_ZSt11__addressofIN3tbb6detail2d013do_once_stateEEPT_RS4_>
    4bb5:	8b 00                	mov    (%rax),%eax
    4bb7:	89 c3                	mov    %eax,%ebx
    4bb9:	48 8b 45 e8          	mov    -0x18(%rbp),%rax
    4bbd:	48 89 c7             	mov    %rax,%rdi
    4bc0:	e8 ba ff ff ff       	call   4b7f <_ZSt11__addressofIN3tbb6detail2d013do_once_stateEEPT_RS4_>
    4bc5:	87 18                	xchg   %ebx,(%rax)
    4bc7:	90                   	nop
    4bc8:	48 8b 5d f8          	mov    -0x8(%rbp),%rbx
    4bcc:	c9                   	leave  
    4bcd:	c3                   	ret    

0000000000004bce <_ZN3tbb6detail2d014atomic_do_onceIZNS0_2d110task_arena10initializeEvEUlvE_EEvRKT_RSt6atomicINS1_13do_once_stateEE>:
    4bce:	f3 0f 1e fa          	endbr64 
    4bd2:	55                   	push   %rbp
    4bd3:	48 89 e5             	mov    %rsp,%rbp
    4bd6:	48 83 ec 20          	sub    $0x20,%rsp
    4bda:	48 89 7d e8          	mov    %rdi,-0x18(%rbp)
    4bde:	48 89 75 e0          	mov    %rsi,-0x20(%rbp)
    4be2:	64 48 8b 04 25 28 00 	mov    %fs:0x28,%rax
    4be9:	00 00 
    4beb:	48 89 45 f8          	mov    %rax,-0x8(%rbp)
    4bef:	31 c0                	xor    %eax,%eax
    4bf1:	eb 6a                	jmp    4c5d <_ZN3tbb6detail2d014atomic_do_onceIZNS0_2d110task_arena10initializeEvEUlvE_EEvRKT_RSt6atomicINS1_13do_once_stateEE+0x8f>
    4bf3:	48 8b 45 e0          	mov    -0x20(%rbp),%rax
    4bf7:	be 00 00 00 00       	mov    $0x0,%esi
    4bfc:	48 89 c7             	mov    %rax,%rdi
    4bff:	e8 90 00 00 00       	call   4c94 <_ZNKSt6atomicIN3tbb6detail2d013do_once_stateEE4loadESt12memory_order>
    4c04:	85 c0                	test   %eax,%eax
    4c06:	0f 94 c0             	sete   %al
    4c09:	84 c0                	test   %al,%al
    4c0b:	74 3a                	je     4c47 <_ZN3tbb6detail2d014atomic_do_onceIZNS0_2d110task_arena10initializeEvEUlvE_EEvRKT_RSt6atomicINS1_13do_once_stateEE+0x79>
    4c0d:	c7 45 f4 00 00 00 00 	movl   $0x0,-0xc(%rbp)
    4c14:	48 8d 75 f4          	lea    -0xc(%rbp),%rsi
    4c18:	48 8b 45 e0          	mov    -0x20(%rbp),%rax
    4c1c:	b9 05 00 00 00       	mov    $0x5,%ecx
    4c21:	ba 01 00 00 00       	mov    $0x1,%edx
    4c26:	48 89 c7             	mov    %rax,%rdi
    4c29:	e8 92 05 00 00       	call   51c0 <_ZNSt6atomicIN3tbb6detail2d013do_once_stateEE23compare_exchange_strongERS3_S3_St12memory_order>
    4c2e:	84 c0                	test   %al,%al
    4c30:	74 15                	je     4c47 <_ZN3tbb6detail2d014atomic_do_onceIZNS0_2d110task_arena10initializeEvEUlvE_EEvRKT_RSt6atomicINS1_13do_once_stateEE+0x79>
    4c32:	48 8b 55 e0          	mov    -0x20(%rbp),%rdx
    4c36:	48 8b 45 e8          	mov    -0x18(%rbp),%rax
    4c3a:	48 89 d6             	mov    %rdx,%rsi
    4c3d:	48 89 c7             	mov    %rax,%rdi
    4c40:	e8 bc 05 00 00       	call   5201 <_ZN3tbb6detail2d015run_initializerIZNS0_2d110task_arena10initializeEvEUlvE_EEvRKT_RSt6atomicINS1_13do_once_stateEE>
    4c45:	eb 35                	jmp    4c7c <_ZN3tbb6detail2d014atomic_do_onceIZNS0_2d110task_arena10initializeEvEUlvE_EEvRKT_RSt6atomicINS1_13do_once_stateEE+0xae>
    4c47:	48 8b 45 e0          	mov    -0x20(%rbp),%rax
    4c4b:	ba 02 00 00 00       	mov    $0x2,%edx
    4c50:	be 01 00 00 00       	mov    $0x1,%esi
    4c55:	48 89 c7             	mov    %rax,%rdi
    4c58:	e8 fd 05 00 00       	call   525a <_ZN3tbb6detail2d018spin_wait_while_eqINS1_13do_once_stateES3_EET_RKSt6atomicIS4_ET0_St12memory_order>
    4c5d:	48 8b 45 e0          	mov    -0x20(%rbp),%rax
    4c61:	be 02 00 00 00       	mov    $0x2,%esi
    4c66:	48 89 c7             	mov    %rax,%rdi
    4c69:	e8 26 00 00 00       	call   4c94 <_ZNKSt6atomicIN3tbb6detail2d013do_once_stateEE4loadESt12memory_order>
    4c6e:	83 f8 02             	cmp    $0x2,%eax
    4c71:	0f 95 c0             	setne  %al
    4c74:	84 c0                	test   %al,%al
    4c76:	0f 85 77 ff ff ff    	jne    4bf3 <_ZN3tbb6detail2d014atomic_do_onceIZNS0_2d110task_arena10initializeEvEUlvE_EEvRKT_RSt6atomicINS1_13do_once_stateEE+0x25>
    4c7c:	90                   	nop
    4c7d:	48 8b 45 f8          	mov    -0x8(%rbp),%rax
    4c81:	64 48 2b 04 25 28 00 	sub    %fs:0x28,%rax
    4c88:	00 00 
    4c8a:	74 05                	je     4c91 <_ZN3tbb6detail2d014atomic_do_onceIZNS0_2d110task_arena10initializeEvEUlvE_EEvRKT_RSt6atomicINS1_13do_once_stateEE+0xc3>
    4c8c:	e8 bf d6 ff ff       	call   2350 <__stack_chk_fail@plt>
    4c91:	c9                   	leave  
    4c92:	c3                   	ret    
    4c93:	90                   	nop

0000000000004c94 <_ZNKSt6atomicIN3tbb6detail2d013do_once_stateEE4loadESt12memory_order>:
    4c94:	f3 0f 1e fa          	endbr64 
    4c98:	55                   	push   %rbp
    4c99:	48 89 e5             	mov    %rsp,%rbp
    4c9c:	48 83 ec 30          	sub    $0x30,%rsp
    4ca0:	48 89 7d d8          	mov    %rdi,-0x28(%rbp)
    4ca4:	89 75 d4             	mov    %esi,-0x2c(%rbp)
    4ca7:	64 48 8b 04 25 28 00 	mov    %fs:0x28,%rax
    4cae:	00 00 
    4cb0:	48 89 45 f8          	mov    %rax,-0x8(%rbp)
    4cb4:	31 c0                	xor    %eax,%eax
    4cb6:	48 8d 45 f4          	lea    -0xc(%rbp),%rax
    4cba:	48 89 45 e8          	mov    %rax,-0x18(%rbp)
    4cbe:	48 8b 45 d8          	mov    -0x28(%rbp),%rax
    4cc2:	48 89 c7             	mov    %rax,%rdi
    4cc5:	e8 c1 05 00 00       	call   528b <_ZSt11__addressofIKN3tbb6detail2d013do_once_stateEEPT_RS5_>
    4cca:	8b 00                	mov    (%rax),%eax
    4ccc:	89 c2                	mov    %eax,%edx
    4cce:	48 8b 45 e8          	mov    -0x18(%rbp),%rax
    4cd2:	89 10                	mov    %edx,(%rax)
    4cd4:	48 8b 45 e8          	mov    -0x18(%rbp),%rax
    4cd8:	8b 00                	mov    (%rax),%eax
    4cda:	48 8b 55 f8          	mov    -0x8(%rbp),%rdx
    4cde:	64 48 2b 14 25 28 00 	sub    %fs:0x28,%rdx
    4ce5:	00 00 
    4ce7:	74 05                	je     4cee <_ZNKSt6atomicIN3tbb6detail2d013do_once_stateEE4loadESt12memory_order+0x5a>
    4ce9:	e8 62 d6 ff ff       	call   2350 <__stack_chk_fail@plt>
    4cee:	c9                   	leave  
    4cef:	c3                   	ret    

0000000000004cf0 <_ZNKSt6atomicIN3tbb6detail2d118task_group_context5stateEE4loadESt12memory_order>:
    4cf0:	f3 0f 1e fa          	endbr64 
    4cf4:	55                   	push   %rbp
    4cf5:	48 89 e5             	mov    %rsp,%rbp
    4cf8:	48 83 ec 30          	sub    $0x30,%rsp
    4cfc:	48 89 7d d8          	mov    %rdi,-0x28(%rbp)
    4d00:	89 75 d4             	mov    %esi,-0x2c(%rbp)
    4d03:	64 48 8b 04 25 28 00 	mov    %fs:0x28,%rax
    4d0a:	00 00 
    4d0c:	48 89 45 f8          	mov    %rax,-0x8(%rbp)
    4d10:	31 c0                	xor    %eax,%eax
    4d12:	48 8d 45 f7          	lea    -0x9(%rbp),%rax
    4d16:	48 89 45 e8          	mov    %rax,-0x18(%rbp)
    4d1a:	48 8b 45 d8          	mov    -0x28(%rbp),%rax
    4d1e:	48 89 c7             	mov    %rax,%rdi
    4d21:	e8 77 05 00 00       	call   529d <_ZSt11__addressofIKN3tbb6detail2d118task_group_context5stateEEPT_RS6_>
    4d26:	0f b6 10             	movzbl (%rax),%edx
    4d29:	48 8b 45 e8          	mov    -0x18(%rbp),%rax
    4d2d:	88 10                	mov    %dl,(%rax)
    4d2f:	48 8b 45 e8          	mov    -0x18(%rbp),%rax
    4d33:	0f b6 00             	movzbl (%rax),%eax
    4d36:	48 8b 55 f8          	mov    -0x8(%rbp),%rdx
    4d3a:	64 48 2b 14 25 28 00 	sub    %fs:0x28,%rdx
    4d41:	00 00 
    4d43:	74 05                	je     4d4a <_ZNKSt6atomicIN3tbb6detail2d118task_group_context5stateEE4loadESt12memory_order+0x5a>
    4d45:	e8 06 d6 ff ff       	call   2350 <__stack_chk_fail@plt>
    4d4a:	c9                   	leave  
    4d4b:	c3                   	ret    

0000000000004d4c <_ZN3tbb6detail2d110task_arena7executeIZZNS1_5graph12wait_for_allEvENKUlvE_clEvEUlvE_EEDTclfp_EEOT_>:
    4d4c:	f3 0f 1e fa          	endbr64 
    4d50:	55                   	push   %rbp
    4d51:	48 89 e5             	mov    %rsp,%rbp
    4d54:	48 83 ec 10          	sub    $0x10,%rsp
    4d58:	48 89 7d f8          	mov    %rdi,-0x8(%rbp)
    4d5c:	48 89 75 f0          	mov    %rsi,-0x10(%rbp)
    4d60:	48 8b 55 f0          	mov    -0x10(%rbp),%rdx
    4d64:	48 8b 45 f8          	mov    -0x8(%rbp),%rax
    4d68:	48 89 d6             	mov    %rdx,%rsi
    4d6b:	48 89 c7             	mov    %rax,%rdi
    4d6e:	e8 b9 05 00 00       	call   532c <_ZN3tbb6detail2d110task_arena12execute_implIvZZNS1_5graph12wait_for_allEvENKUlvE_clEvEUlvE_EET_RT0_>
    4d73:	90                   	nop
    4d74:	c9                   	leave  
    4d75:	c3                   	ret    

0000000000004d76 <_ZN3tbb6detail2d08try_callIZNS0_2d15graph12wait_for_allEvEUlvE_EENS1_14try_call_proxyIT_EES7_>:
    4d76:	f3 0f 1e fa          	endbr64 
    4d7a:	55                   	push   %rbp
    4d7b:	48 89 e5             	mov    %rsp,%rbp
    4d7e:	48 83 ec 20          	sub    $0x20,%rsp
    4d82:	48 89 7d e8          	mov    %rdi,-0x18(%rbp)
    4d86:	64 48 8b 04 25 28 00 	mov    %fs:0x28,%rax
    4d8d:	00 00 
    4d8f:	48 89 45 f8          	mov    %rax,-0x8(%rbp)
    4d93:	31 c0                	xor    %eax,%eax
    4d95:	48 8b 55 e8          	mov    -0x18(%rbp),%rdx
    4d99:	48 8d 45 f0          	lea    -0x10(%rbp),%rax
    4d9d:	48 89 d6             	mov    %rdx,%rsi
    4da0:	48 89 c7             	mov    %rax,%rdi
    4da3:	e8 2e 06 00 00       	call   53d6 <_ZN3tbb6detail2d014try_call_proxyIZNS0_2d15graph12wait_for_allEvEUlvE_EC1ES5_>
    4da8:	48 8b 45 f0          	mov    -0x10(%rbp),%rax
    4dac:	48 8b 55 f8          	mov    -0x8(%rbp),%rdx
    4db0:	64 48 2b 14 25 28 00 	sub    %fs:0x28,%rdx
    4db7:	00 00 
    4db9:	74 05                	je     4dc0 <_ZN3tbb6detail2d08try_callIZNS0_2d15graph12wait_for_allEvEUlvE_EENS1_14try_call_proxyIT_EES7_+0x4a>
    4dbb:	e8 90 d5 ff ff       	call   2350 <__stack_chk_fail@plt>
    4dc0:	c9                   	leave  
    4dc1:	c3                   	ret    

0000000000004dc2 <_ZN3tbb6detail2d014try_call_proxyIZNS0_2d15graph12wait_for_allEvEUlvE_E12on_exceptionIZNS4_12wait_for_allEvEUlvE0_EEvT_>:
    4dc2:	f3 0f 1e fa          	endbr64 
    4dc6:	55                   	push   %rbp
    4dc7:	48 89 e5             	mov    %rsp,%rbp
    4dca:	53                   	push   %rbx
    4dcb:	48 83 ec 38          	sub    $0x38,%rsp
    4dcf:	48 89 7d c8          	mov    %rdi,-0x38(%rbp)
    4dd3:	48 89 75 c0          	mov    %rsi,-0x40(%rbp)
    4dd7:	64 48 8b 04 25 28 00 	mov    %fs:0x28,%rax
    4dde:	00 00 
    4de0:	48 89 45 e8          	mov    %rax,-0x18(%rbp)
    4de4:	31 c0                	xor    %eax,%eax
    4de6:	48 8d 45 d0          	lea    -0x30(%rbp),%rax
    4dea:	48 8b 55 c0          	mov    -0x40(%rbp),%rdx
    4dee:	48 89 d6             	mov    %rdx,%rsi
    4df1:	48 89 c7             	mov    %rax,%rdi
    4df4:	e8 fb 05 00 00       	call   53f4 <_ZN3tbb6detail2d015make_raii_guardIZNS0_2d15graph12wait_for_allEvEUlvE0_EENS1_10raii_guardIT_EES7_>
    4df9:	48 8b 45 c8          	mov    -0x38(%rbp),%rax
    4dfd:	48 89 c7             	mov    %rax,%rdi
    4e00:	e8 bb f6 ff ff       	call   44c0 <_ZZN3tbb6detail2d15graph12wait_for_allEvENKUlvE_clEv>
    4e05:	48 8d 45 d0          	lea    -0x30(%rbp),%rax
    4e09:	48 89 c7             	mov    %rax,%rdi
    4e0c:	e8 3d 06 00 00       	call   544e <_ZN3tbb6detail2d010raii_guardIZNS0_2d15graph12wait_for_allEvEUlvE0_E7dismissEv>
    4e11:	48 8d 45 d0          	lea    -0x30(%rbp),%rax
    4e15:	48 89 c7             	mov    %rax,%rdi
    4e18:	e8 05 06 00 00       	call   5422 <_ZN3tbb6detail2d010raii_guardIZNS0_2d15graph12wait_for_allEvEUlvE0_ED1Ev>
    4e1d:	48 8b 45 e8          	mov    -0x18(%rbp),%rax
    4e21:	64 48 2b 04 25 28 00 	sub    %fs:0x28,%rax
    4e28:	00 00 
    4e2a:	74 25                	je     4e51 <_ZN3tbb6detail2d014try_call_proxyIZNS0_2d15graph12wait_for_allEvEUlvE_E12on_exceptionIZNS4_12wait_for_allEvEUlvE0_EEvT_+0x8f>
    4e2c:	eb 1e                	jmp    4e4c <_ZN3tbb6detail2d014try_call_proxyIZNS0_2d15graph12wait_for_allEvEUlvE_E12on_exceptionIZNS4_12wait_for_allEvEUlvE0_EEvT_+0x8a>
    4e2e:	f3 0f 1e fa          	endbr64 
    4e32:	48 89 c3             	mov    %rax,%rbx
    4e35:	48 8d 45 d0          	lea    -0x30(%rbp),%rax
    4e39:	48 89 c7             	mov    %rax,%rdi
    4e3c:	e8 e1 05 00 00       	call   5422 <_ZN3tbb6detail2d010raii_guardIZNS0_2d15graph12wait_for_allEvEUlvE0_ED1Ev>
    4e41:	48 89 d8             	mov    %rbx,%rax
    4e44:	48 89 c7             	mov    %rax,%rdi
    4e47:	e8 a4 d5 ff ff       	call   23f0 <_Unwind_Resume@plt>
    4e4c:	e8 ff d4 ff ff       	call   2350 <__stack_chk_fail@plt>
    4e51:	48 8b 5d f8          	mov    -0x8(%rbp),%rbx
    4e55:	c9                   	leave  
    4e56:	c3                   	ret    
    4e57:	90                   	nop

0000000000004e58 <_ZNSt6vectorIPN3tbb6detail2d110graph_taskENS2_23cache_aligned_allocatorIS4_EEED1Ev>:
    4e58:	f3 0f 1e fa          	endbr64 
    4e5c:	55                   	push   %rbp
    4e5d:	48 89 e5             	mov    %rsp,%rbp
    4e60:	48 83 ec 10          	sub    $0x10,%rsp
    4e64:	48 89 7d f8          	mov    %rdi,-0x8(%rbp)
    4e68:	48 8b 45 f8          	mov    -0x8(%rbp),%rax
    4e6c:	48 89 c7             	mov    %rax,%rdi
    4e6f:	e8 4a 06 00 00       	call   54be <_ZNSt12_Vector_baseIPN3tbb6detail2d110graph_taskENS2_23cache_aligned_allocatorIS4_EEE19_M_get_Tp_allocatorEv>
    4e74:	48 89 c2             	mov    %rax,%rdx
    4e77:	48 8b 45 f8          	mov    -0x8(%rbp),%rax
    4e7b:	48 8b 48 08          	mov    0x8(%rax),%rcx
    4e7f:	48 8b 45 f8          	mov    -0x8(%rbp),%rax
    4e83:	48 8b 00             	mov    (%rax),%rax
    4e86:	48 89 ce             	mov    %rcx,%rsi
    4e89:	48 89 c7             	mov    %rax,%rdi
    4e8c:	e8 3f 06 00 00       	call   54d0 <_ZSt8_DestroyIPPN3tbb6detail2d110graph_taskENS2_23cache_aligned_allocatorIS4_EEEvT_S8_RT0_>
    4e91:	48 8b 45 f8          	mov    -0x8(%rbp),%rax
    4e95:	48 89 c7             	mov    %rax,%rdi
    4e98:	e8 db 05 00 00       	call   5478 <_ZNSt12_Vector_baseIPN3tbb6detail2d110graph_taskENS2_23cache_aligned_allocatorIS4_EEED1Ev>
    4e9d:	90                   	nop
    4e9e:	c9                   	leave  
    4e9f:	c3                   	ret    

0000000000004ea0 <_ZN3tbb6detail2d122dynamic_grainsize_modeINS1_13adaptive_modeINS1_19auto_partition_typeEEEEC1Ev>:
    4ea0:	f3 0f 1e fa          	endbr64 
    4ea4:	55                   	push   %rbp
    4ea5:	48 89 e5             	mov    %rsp,%rbp
    4ea8:	48 83 ec 10          	sub    $0x10,%rsp
    4eac:	48 89 7d f8          	mov    %rdi,-0x8(%rbp)
    4eb0:	48 8b 45 f8          	mov    -0x8(%rbp),%rax
    4eb4:	48 89 c7             	mov    %rax,%rdi
    4eb7:	e8 60 06 00 00       	call   551c <_ZN3tbb6detail2d113adaptive_modeINS1_19auto_partition_typeEEC1Ev>
    4ebc:	48 8b 45 f8          	mov    -0x8(%rbp),%rax
    4ec0:	c7 40 08 00 00 00 00 	movl   $0x0,0x8(%rax)
    4ec7:	48 8b 45 f8          	mov    -0x8(%rbp),%rax
    4ecb:	c6 40 0c 05          	movb   $0x5,0xc(%rax)
    4ecf:	90                   	nop
    4ed0:	c9                   	leave  
    4ed1:	c3                   	ret    

0000000000004ed2 <_ZN3tbb6detail2d122dynamic_grainsize_modeINS1_13adaptive_modeINS1_19auto_partition_typeEEEEC1ERS6_NS0_2d05splitE>:
    4ed2:	f3 0f 1e fa          	endbr64 
    4ed6:	55                   	push   %rbp
    4ed7:	48 89 e5             	mov    %rsp,%rbp
    4eda:	48 83 ec 10          	sub    $0x10,%rsp
    4ede:	48 89 7d f8          	mov    %rdi,-0x8(%rbp)
    4ee2:	48 89 75 f0          	mov    %rsi,-0x10(%rbp)
    4ee6:	48 8b 45 f8          	mov    -0x8(%rbp),%rax
    4eea:	48 8b 55 f0          	mov    -0x10(%rbp),%rdx
    4eee:	48 89 d6             	mov    %rdx,%rsi
    4ef1:	48 89 c7             	mov    %rax,%rdi
    4ef4:	e8 49 06 00 00       	call   5542 <_ZN3tbb6detail2d113adaptive_modeINS1_19auto_partition_typeEEC1ERS4_NS0_2d05splitE>
    4ef9:	48 8b 45 f8          	mov    -0x8(%rbp),%rax
    4efd:	c7 40 08 02 00 00 00 	movl   $0x2,0x8(%rax)
    4f04:	48 8b 45 f0          	mov    -0x10(%rbp),%rax
    4f08:	0f b6 50 0c          	movzbl 0xc(%rax),%edx
    4f0c:	48 8b 45 f8          	mov    -0x8(%rbp),%rax
    4f10:	88 50 0c             	mov    %dl,0xc(%rax)
    4f13:	90                   	nop
    4f14:	c9                   	leave  
    4f15:	c3                   	ret    

0000000000004f16 <_ZNKSt6vectorIiSaIiEE4sizeEv>:
    4f16:	f3 0f 1e fa          	endbr64 
    4f1a:	55                   	push   %rbp
    4f1b:	48 89 e5             	mov    %rsp,%rbp
    4f1e:	48 89 7d f8          	mov    %rdi,-0x8(%rbp)
    4f22:	48 8b 45 f8          	mov    -0x8(%rbp),%rax
    4f26:	48 8b 50 08          	mov    0x8(%rax),%rdx
    4f2a:	48 8b 45 f8          	mov    -0x8(%rbp),%rax
    4f2e:	48 8b 08             	mov    (%rax),%rcx
    4f31:	48 89 d0             	mov    %rdx,%rax
    4f34:	48 29 c8             	sub    %rcx,%rax
    4f37:	48 c1 f8 02          	sar    $0x2,%rax
    4f3b:	5d                   	pop    %rbp
    4f3c:	c3                   	ret    
    4f3d:	90                   	nop

0000000000004f3e <_ZN3tbb6detail2d113blocked_rangeImEC1Emmm>:
    4f3e:	f3 0f 1e fa          	endbr64 
    4f42:	55                   	push   %rbp
    4f43:	48 89 e5             	mov    %rsp,%rbp
    4f46:	48 89 7d f8          	mov    %rdi,-0x8(%rbp)
    4f4a:	48 89 75 f0          	mov    %rsi,-0x10(%rbp)
    4f4e:	48 89 55 e8          	mov    %rdx,-0x18(%rbp)
    4f52:	48 89 4d e0          	mov    %rcx,-0x20(%rbp)
    4f56:	48 8b 45 f8          	mov    -0x8(%rbp),%rax
    4f5a:	48 8b 55 e8          	mov    -0x18(%rbp),%rdx
    4f5e:	48 89 10             	mov    %rdx,(%rax)
    4f61:	48 8b 45 f8          	mov    -0x8(%rbp),%rax
    4f65:	48 8b 55 f0          	mov    -0x10(%rbp),%rdx
    4f69:	48 89 50 08          	mov    %rdx,0x8(%rax)
    4f6d:	48 8b 45 f8          	mov    -0x8(%rbp),%rax
    4f71:	48 8b 55 e0          	mov    -0x20(%rbp),%rdx
    4f75:	48 89 50 10          	mov    %rdx,0x10(%rax)
    4f79:	90                   	nop
    4f7a:	5d                   	pop    %rbp
    4f7b:	c3                   	ret    

0000000000004f7c <_ZNK3tbb6detail2d113blocked_rangeImE5beginEv>:
    4f7c:	f3 0f 1e fa          	endbr64 
    4f80:	55                   	push   %rbp
    4f81:	48 89 e5             	mov    %rsp,%rbp
    4f84:	48 89 7d f8          	mov    %rdi,-0x8(%rbp)
    4f88:	48 8b 45 f8          	mov    -0x8(%rbp),%rax
    4f8c:	48 8b 40 08          	mov    0x8(%rax),%rax
    4f90:	5d                   	pop    %rbp
    4f91:	c3                   	ret    

0000000000004f92 <_ZNK3tbb6detail2d113blocked_rangeImE3endEv>:
    4f92:	f3 0f 1e fa          	endbr64 
    4f96:	55                   	push   %rbp
    4f97:	48 89 e5             	mov    %rsp,%rbp
    4f9a:	48 89 7d f8          	mov    %rdi,-0x8(%rbp)
    4f9e:	48 8b 45 f8          	mov    -0x8(%rbp),%rax
    4fa2:	48 8b 00             	mov    (%rax),%rax
    4fa5:	5d                   	pop    %rbp
    4fa6:	c3                   	ret    
    4fa7:	90                   	nop

0000000000004fa8 <_ZNSt6vectorIiSaIiEEixEm>:
    4fa8:	f3 0f 1e fa          	endbr64 
    4fac:	55                   	push   %rbp
    4fad:	48 89 e5             	mov    %rsp,%rbp
    4fb0:	48 89 7d f8          	mov    %rdi,-0x8(%rbp)
    4fb4:	48 89 75 f0          	mov    %rsi,-0x10(%rbp)
    4fb8:	48 8b 45 f8          	mov    -0x8(%rbp),%rax
    4fbc:	48 8b 10             	mov    (%rax),%rdx
    4fbf:	48 8b 45 f0          	mov    -0x10(%rbp),%rax
    4fc3:	48 c1 e0 02          	shl    $0x2,%rax
    4fc7:	48 01 d0             	add    %rdx,%rax
    4fca:	5d                   	pop    %rbp
    4fcb:	c3                   	ret    

0000000000004fcc <_ZN9__gnu_cxx13new_allocatorIiEC1Ev>:
    4fcc:	f3 0f 1e fa          	endbr64 
    4fd0:	55                   	push   %rbp
    4fd1:	48 89 e5             	mov    %rsp,%rbp
    4fd4:	48 89 7d f8          	mov    %rdi,-0x8(%rbp)
    4fd8:	90                   	nop
    4fd9:	5d                   	pop    %rbp
    4fda:	c3                   	ret    
    4fdb:	90                   	nop

0000000000004fdc <_ZN9__gnu_cxx13new_allocatorIiED1Ev>:
    4fdc:	f3 0f 1e fa          	endbr64 
    4fe0:	55                   	push   %rbp
    4fe1:	48 89 e5             	mov    %rsp,%rbp
    4fe4:	48 89 7d f8          	mov    %rdi,-0x8(%rbp)
    4fe8:	90                   	nop
    4fe9:	5d                   	pop    %rbp
    4fea:	c3                   	ret    

0000000000004feb <_ZNSt6vectorIiSaIiEE17_S_check_init_lenEmRKS0_>:
    4feb:	f3 0f 1e fa          	endbr64 
    4fef:	55                   	push   %rbp
    4ff0:	48 89 e5             	mov    %rsp,%rbp
    4ff3:	53                   	push   %rbx
    4ff4:	48 83 ec 28          	sub    $0x28,%rsp
    4ff8:	48 89 7d d8          	mov    %rdi,-0x28(%rbp)
    4ffc:	48 89 75 d0          	mov    %rsi,-0x30(%rbp)
    5000:	64 48 8b 04 25 28 00 	mov    %fs:0x28,%rax
    5007:	00 00 
    5009:	48 89 45 e8          	mov    %rax,-0x18(%rbp)
    500d:	31 c0                	xor    %eax,%eax
    500f:	48 8b 55 d0          	mov    -0x30(%rbp),%rdx
    5013:	48 8d 45 e7          	lea    -0x19(%rbp),%rax
    5017:	48 89 d6             	mov    %rdx,%rsi
    501a:	48 89 c7             	mov    %rax,%rdi
    501d:	e8 3a 01 00 00       	call   515c <_ZNSaIiEC1ERKS_>
    5022:	48 8d 45 e7          	lea    -0x19(%rbp),%rax
    5026:	48 89 c7             	mov    %rax,%rdi
    5029:	e8 45 05 00 00       	call   5573 <_ZNSt6vectorIiSaIiEE11_S_max_sizeERKS0_>
    502e:	48 39 45 d8          	cmp    %rax,-0x28(%rbp)
    5032:	0f 97 c3             	seta   %bl
    5035:	48 8d 45 e7          	lea    -0x19(%rbp),%rax
    5039:	48 89 c7             	mov    %rax,%rdi
    503c:	e8 07 fa ff ff       	call   4a48 <_ZNSaIiED1Ev>
    5041:	84 db                	test   %bl,%bl
    5043:	74 0f                	je     5054 <_ZNSt6vectorIiSaIiEE17_S_check_init_lenEmRKS0_+0x69>
    5045:	48 8d 05 7c 20 00 00 	lea    0x207c(%rip),%rax        # 70c8 <_ZN3tbb6detail2d1L17finalize_throwingE+0x18>
    504c:	48 89 c7             	mov    %rax,%rdi
    504f:	e8 5c d2 ff ff       	call   22b0 <_ZSt20__throw_length_errorPKc@plt>
    5054:	48 8b 45 d8          	mov    -0x28(%rbp),%rax
    5058:	48 8b 55 e8          	mov    -0x18(%rbp),%rdx
    505c:	64 48 2b 14 25 28 00 	sub    %fs:0x28,%rdx
    5063:	00 00 
    5065:	74 05                	je     506c <_ZNSt6vectorIiSaIiEE17_S_check_init_lenEmRKS0_+0x81>
    5067:	e8 e4 d2 ff ff       	call   2350 <__stack_chk_fail@plt>
    506c:	48 8b 5d f8          	mov    -0x8(%rbp),%rbx
    5070:	c9                   	leave  
    5071:	c3                   	ret    

0000000000005072 <_ZNSt12_Vector_baseIiSaIiEEC1EmRKS0_>:
    5072:	f3 0f 1e fa          	endbr64 
    5076:	55                   	push   %rbp
    5077:	48 89 e5             	mov    %rsp,%rbp
    507a:	53                   	push   %rbx
    507b:	48 83 ec 28          	sub    $0x28,%rsp
    507f:	48 89 7d e8          	mov    %rdi,-0x18(%rbp)
    5083:	48 89 75 e0          	mov    %rsi,-0x20(%rbp)
    5087:	48 89 55 d8          	mov    %rdx,-0x28(%rbp)
    508b:	48 8b 45 e8          	mov    -0x18(%rbp),%rax
    508f:	48 8b 55 d8          	mov    -0x28(%rbp),%rdx
    5093:	48 89 d6             	mov    %rdx,%rsi
    5096:	48 89 c7             	mov    %rax,%rdi
    5099:	e8 3e 05 00 00       	call   55dc <_ZNSt12_Vector_baseIiSaIiEE12_Vector_implC1ERKS0_>
    509e:	48 8b 55 e0          	mov    -0x20(%rbp),%rdx
    50a2:	48 8b 45 e8          	mov    -0x18(%rbp),%rax
    50a6:	48 89 d6             	mov    %rdx,%rsi
    50a9:	48 89 c7             	mov    %rax,%rdi
    50ac:	e8 61 05 00 00       	call   5612 <_ZNSt12_Vector_baseIiSaIiEE17_M_create_storageEm>
    50b1:	eb 1e                	jmp    50d1 <_ZNSt12_Vector_baseIiSaIiEEC1EmRKS0_+0x5f>
    50b3:	f3 0f 1e fa          	endbr64 
    50b7:	48 89 c3             	mov    %rax,%rbx
    50ba:	48 8b 45 e8          	mov    -0x18(%rbp),%rax
    50be:	48 89 c7             	mov    %rax,%rdi
    50c1:	e8 f2 ee ff ff       	call   3fb8 <_ZNSt12_Vector_baseIiSaIiEE12_Vector_implD1Ev>
    50c6:	48 89 d8             	mov    %rbx,%rax
    50c9:	48 89 c7             	mov    %rax,%rdi
    50cc:	e8 1f d3 ff ff       	call   23f0 <_Unwind_Resume@plt>
    50d1:	48 8b 5d f8          	mov    -0x8(%rbp),%rbx
    50d5:	c9                   	leave  
    50d6:	c3                   	ret    
    50d7:	90                   	nop

00000000000050d8 <_ZNSt6vectorIiSaIiEE21_M_default_initializeEm>:
    50d8:	f3 0f 1e fa          	endbr64 
    50dc:	55                   	push   %rbp
    50dd:	48 89 e5             	mov    %rsp,%rbp
    50e0:	48 83 ec 10          	sub    $0x10,%rsp
    50e4:	48 89 7d f8          	mov    %rdi,-0x8(%rbp)
    50e8:	48 89 75 f0          	mov    %rsi,-0x10(%rbp)
    50ec:	48 8b 45 f8          	mov    -0x8(%rbp),%rax
    50f0:	48 89 c7             	mov    %rax,%rdi
    50f3:	e8 24 00 00 00       	call   511c <_ZNSt12_Vector_baseIiSaIiEE19_M_get_Tp_allocatorEv>
    50f8:	48 89 c2             	mov    %rax,%rdx
    50fb:	48 8b 45 f8          	mov    -0x8(%rbp),%rax
    50ff:	48 8b 00             	mov    (%rax),%rax
    5102:	48 8b 4d f0          	mov    -0x10(%rbp),%rcx
    5106:	48 89 ce             	mov    %rcx,%rsi
    5109:	48 89 c7             	mov    %rax,%rdi
    510c:	e8 5b 05 00 00       	call   566c <_ZSt27__uninitialized_default_n_aIPimiET_S1_T0_RSaIT1_E>
    5111:	48 8b 55 f8          	mov    -0x8(%rbp),%rdx
    5115:	48 89 42 08          	mov    %rax,0x8(%rdx)
    5119:	90                   	nop
    511a:	c9                   	leave  
    511b:	c3                   	ret    

000000000000511c <_ZNSt12_Vector_baseIiSaIiEE19_M_get_Tp_allocatorEv>:
    511c:	f3 0f 1e fa          	endbr64 
    5120:	55                   	push   %rbp
    5121:	48 89 e5             	mov    %rsp,%rbp
    5124:	48 89 7d f8          	mov    %rdi,-0x8(%rbp)
    5128:	48 8b 45 f8          	mov    -0x8(%rbp),%rax
    512c:	5d                   	pop    %rbp
    512d:	c3                   	ret    

000000000000512e <_ZSt8_DestroyIPiiEvT_S1_RSaIT0_E>:
    512e:	f3 0f 1e fa          	endbr64 
    5132:	55                   	push   %rbp
    5133:	48 89 e5             	mov    %rsp,%rbp
    5136:	48 83 ec 20          	sub    $0x20,%rsp
    513a:	48 89 7d f8          	mov    %rdi,-0x8(%rbp)
    513e:	48 89 75 f0          	mov    %rsi,-0x10(%rbp)
    5142:	48 89 55 e8          	mov    %rdx,-0x18(%rbp)
    5146:	48 8b 55 f0          	mov    -0x10(%rbp),%rdx
    514a:	48 8b 45 f8          	mov    -0x8(%rbp),%rax
    514e:	48 89 d6             	mov    %rdx,%rsi
    5151:	48 89 c7             	mov    %rax,%rdi
    5154:	e8 40 05 00 00       	call   5699 <_ZSt8_DestroyIPiEvT_S1_>
    5159:	90                   	nop
    515a:	c9                   	leave  
    515b:	c3                   	ret    

000000000000515c <_ZNSaIiEC1ERKS_>:
    515c:	f3 0f 1e fa          	endbr64 
    5160:	55                   	push   %rbp
    5161:	48 89 e5             	mov    %rsp,%rbp
    5164:	48 83 ec 10          	sub    $0x10,%rsp
    5168:	48 89 7d f8          	mov    %rdi,-0x8(%rbp)
    516c:	48 89 75 f0          	mov    %rsi,-0x10(%rbp)
    5170:	48 8b 55 f0          	mov    -0x10(%rbp),%rdx
    5174:	48 8b 45 f8          	mov    -0x8(%rbp),%rax
    5178:	48 89 d6             	mov    %rdx,%rsi
    517b:	48 89 c7             	mov    %rax,%rdi
    517e:	e8 41 05 00 00       	call   56c4 <_ZN9__gnu_cxx13new_allocatorIiEC1ERKS1_>
    5183:	90                   	nop
    5184:	c9                   	leave  
    5185:	c3                   	ret    

0000000000005186 <_ZNSt12_Vector_baseIiSaIiEE13_M_deallocateEPim>:
    5186:	f3 0f 1e fa          	endbr64 
    518a:	55                   	push   %rbp
    518b:	48 89 e5             	mov    %rsp,%rbp
    518e:	48 83 ec 20          	sub    $0x20,%rsp
    5192:	48 89 7d f8          	mov    %rdi,-0x8(%rbp)
    5196:	48 89 75 f0          	mov    %rsi,-0x10(%rbp)
    519a:	48 89 55 e8          	mov    %rdx,-0x18(%rbp)
    519e:	48 83 7d f0 00       	cmpq   $0x0,-0x10(%rbp)
    51a3:	74 17                	je     51bc <_ZNSt12_Vector_baseIiSaIiEE13_M_deallocateEPim+0x36>
    51a5:	48 8b 45 f8          	mov    -0x8(%rbp),%rax
    51a9:	48 8b 55 e8          	mov    -0x18(%rbp),%rdx
    51ad:	48 8b 4d f0          	mov    -0x10(%rbp),%rcx
    51b1:	48 89 ce             	mov    %rcx,%rsi
    51b4:	48 89 c7             	mov    %rax,%rdi
    51b7:	e8 1b 05 00 00       	call   56d7 <_ZNSt16allocator_traitsISaIiEE10deallocateERS0_Pim>
    51bc:	90                   	nop
    51bd:	c9                   	leave  
    51be:	c3                   	ret    
    51bf:	90                   	nop

00000000000051c0 <_ZNSt6atomicIN3tbb6detail2d013do_once_stateEE23compare_exchange_strongERS3_S3_St12memory_order>:
    51c0:	f3 0f 1e fa          	endbr64 
    51c4:	55                   	push   %rbp
    51c5:	48 89 e5             	mov    %rsp,%rbp
    51c8:	48 83 ec 20          	sub    $0x20,%rsp
    51cc:	48 89 7d f8          	mov    %rdi,-0x8(%rbp)
    51d0:	48 89 75 f0          	mov    %rsi,-0x10(%rbp)
    51d4:	89 55 ec             	mov    %edx,-0x14(%rbp)
    51d7:	89 4d e8             	mov    %ecx,-0x18(%rbp)
    51da:	8b 45 e8             	mov    -0x18(%rbp),%eax
    51dd:	89 c7                	mov    %eax,%edi
    51df:	e8 bb e7 ff ff       	call   399f <_ZSt23__cmpexch_failure_orderSt12memory_order>
    51e4:	89 c7                	mov    %eax,%edi
    51e6:	8b 4d e8             	mov    -0x18(%rbp),%ecx
    51e9:	8b 55 ec             	mov    -0x14(%rbp),%edx
    51ec:	48 8b 75 f0          	mov    -0x10(%rbp),%rsi
    51f0:	48 8b 45 f8          	mov    -0x8(%rbp),%rax
    51f4:	41 89 f8             	mov    %edi,%r8d
    51f7:	48 89 c7             	mov    %rax,%rdi
    51fa:	e8 0b 05 00 00       	call   570a <_ZNSt6atomicIN3tbb6detail2d013do_once_stateEE23compare_exchange_strongERS3_S3_St12memory_orderS6_>
    51ff:	c9                   	leave  
    5200:	c3                   	ret    

0000000000005201 <_ZN3tbb6detail2d015run_initializerIZNS0_2d110task_arena10initializeEvEUlvE_EEvRKT_RSt6atomicINS1_13do_once_stateEE>:
    5201:	f3 0f 1e fa          	endbr64 
    5205:	55                   	push   %rbp
    5206:	48 89 e5             	mov    %rsp,%rbp
    5209:	48 83 ec 10          	sub    $0x10,%rsp
    520d:	48 89 7d f8          	mov    %rdi,-0x8(%rbp)
    5211:	48 89 75 f0          	mov    %rsi,-0x10(%rbp)
    5215:	48 8b 45 f8          	mov    -0x8(%rbp),%rax
    5219:	48 89 c7             	mov    %rax,%rdi
    521c:	e8 b7 ed ff ff       	call   3fd8 <_ZZN3tbb6detail2d110task_arena10initializeEvENKUlvE_clEv>
    5221:	48 8b 45 f0          	mov    -0x10(%rbp),%rax
    5225:	ba 03 00 00 00       	mov    $0x3,%edx
    522a:	be 02 00 00 00       	mov    $0x2,%esi
    522f:	48 89 c7             	mov    %rax,%rdi
    5232:	e8 5b f9 ff ff       	call   4b92 <_ZNSt6atomicIN3tbb6detail2d013do_once_stateEE5storeES3_St12memory_order>
    5237:	90                   	nop
    5238:	c9                   	leave  
    5239:	c3                   	ret    

000000000000523a <_ZZN3tbb6detail2d018spin_wait_while_eqINS1_13do_once_stateES3_EET_RKSt6atomicIS4_ET0_St12memory_orderENKUlS3_E_clES3_>:
    523a:	f3 0f 1e fa          	endbr64 
    523e:	55                   	push   %rbp
    523f:	48 89 e5             	mov    %rsp,%rbp
    5242:	48 89 7d f8          	mov    %rdi,-0x8(%rbp)
    5246:	89 75 f4             	mov    %esi,-0xc(%rbp)
    5249:	48 8b 45 f8          	mov    -0x8(%rbp),%rax
    524d:	48 8b 00             	mov    (%rax),%rax
    5250:	8b 00                	mov    (%rax),%eax
    5252:	39 45 f4             	cmp    %eax,-0xc(%rbp)
    5255:	0f 94 c0             	sete   %al
    5258:	5d                   	pop    %rbp
    5259:	c3                   	ret    

000000000000525a <_ZN3tbb6detail2d018spin_wait_while_eqINS1_13do_once_stateES3_EET_RKSt6atomicIS4_ET0_St12memory_order>:
    525a:	f3 0f 1e fa          	endbr64 
    525e:	55                   	push   %rbp
    525f:	48 89 e5             	mov    %rsp,%rbp
    5262:	48 83 ec 10          	sub    $0x10,%rsp
    5266:	48 89 7d f8          	mov    %rdi,-0x8(%rbp)
    526a:	89 75 f4             	mov    %esi,-0xc(%rbp)
    526d:	89 55 f0             	mov    %edx,-0x10(%rbp)
    5270:	48 8d 45 f4          	lea    -0xc(%rbp),%rax
    5274:	48 89 c1             	mov    %rax,%rcx
    5277:	8b 55 f0             	mov    -0x10(%rbp),%edx
    527a:	48 8b 45 f8          	mov    -0x8(%rbp),%rax
    527e:	48 89 ce             	mov    %rcx,%rsi
    5281:	48 89 c7             	mov    %rax,%rdi
    5284:	e8 ec 04 00 00       	call   5775 <_ZN3tbb6detail2d015spin_wait_whileINS1_13do_once_stateEZNS1_18spin_wait_while_eqIS3_S3_EET_RKSt6atomicIS5_ET0_St12memory_orderEUlS3_E_EES5_S9_SA_SB_>
    5289:	c9                   	leave  
    528a:	c3                   	ret    

000000000000528b <_ZSt11__addressofIKN3tbb6detail2d013do_once_stateEEPT_RS5_>:
    528b:	f3 0f 1e fa          	endbr64 
    528f:	55                   	push   %rbp
    5290:	48 89 e5             	mov    %rsp,%rbp
    5293:	48 89 7d f8          	mov    %rdi,-0x8(%rbp)
    5297:	48 8b 45 f8          	mov    -0x8(%rbp),%rax
    529b:	5d                   	pop    %rbp
    529c:	c3                   	ret    

000000000000529d <_ZSt11__addressofIKN3tbb6detail2d118task_group_context5stateEEPT_RS6_>:
    529d:	f3 0f 1e fa          	endbr64 
    52a1:	55                   	push   %rbp
    52a2:	48 89 e5             	mov    %rsp,%rbp
    52a5:	48 89 7d f8          	mov    %rdi,-0x8(%rbp)
    52a9:	48 8b 45 f8          	mov    -0x8(%rbp),%rax
    52ad:	5d                   	pop    %rbp
    52ae:	c3                   	ret    
    52af:	90                   	nop

00000000000052b0 <_ZN3tbb6detail2d113delegate_baseC1Ev>:
    52b0:	f3 0f 1e fa          	endbr64 
    52b4:	55                   	push   %rbp
    52b5:	48 89 e5             	mov    %rsp,%rbp
    52b8:	48 89 7d f8          	mov    %rdi,-0x8(%rbp)
    52bc:	48 8d 15 85 68 00 00 	lea    0x6885(%rip),%rdx        # bb48 <__cxa_pure_virtual@CXXABI_1.3>
    52c3:	48 8b 45 f8          	mov    -0x8(%rbp),%rax
    52c7:	48 89 10             	mov    %rdx,(%rax)
    52ca:	90                   	nop
    52cb:	5d                   	pop    %rbp
    52cc:	c3                   	ret    
    52cd:	90                   	nop

00000000000052ce <_ZN3tbb6detail2d119task_arena_functionIZZNS1_5graph12wait_for_allEvENKUlvE_clEvEUlvE_vED1Ev>:
    52ce:	f3 0f 1e fa          	endbr64 
    52d2:	55                   	push   %rbp
    52d3:	48 89 e5             	mov    %rsp,%rbp
    52d6:	48 83 ec 10          	sub    $0x10,%rsp
    52da:	48 89 7d f8          	mov    %rdi,-0x8(%rbp)
    52de:	48 8d 15 53 67 00 00 	lea    0x6753(%rip),%rdx        # ba38 <_ZTVN3tbb6detail2d119task_arena_functionIZZNS1_5graph12wait_for_allEvENKUlvE_clEvEUlvE_vEE+0x10>
    52e5:	48 8b 45 f8          	mov    -0x8(%rbp),%rax
    52e9:	48 89 10             	mov    %rdx,(%rax)
    52ec:	48 8b 45 f8          	mov    -0x8(%rbp),%rax
    52f0:	48 89 c7             	mov    %rax,%rdi
    52f3:	e8 aa e8 ff ff       	call   3ba2 <_ZN3tbb6detail2d113delegate_baseD1Ev>
    52f8:	90                   	nop
    52f9:	c9                   	leave  
    52fa:	c3                   	ret    
    52fb:	90                   	nop

00000000000052fc <_ZN3tbb6detail2d119task_arena_functionIZZNS1_5graph12wait_for_allEvENKUlvE_clEvEUlvE_vED0Ev>:
    52fc:	f3 0f 1e fa          	endbr64 
    5300:	55                   	push   %rbp
    5301:	48 89 e5             	mov    %rsp,%rbp
    5304:	48 83 ec 10          	sub    $0x10,%rsp
    5308:	48 89 7d f8          	mov    %rdi,-0x8(%rbp)
    530c:	48 8b 45 f8          	mov    -0x8(%rbp),%rax
    5310:	48 89 c7             	mov    %rax,%rdi
    5313:	e8 b6 ff ff ff       	call   52ce <_ZN3tbb6detail2d119task_arena_functionIZZNS1_5graph12wait_for_allEvENKUlvE_clEvEUlvE_vED1Ev>
    5318:	48 8b 45 f8          	mov    -0x8(%rbp),%rax
    531c:	be 10 00 00 00       	mov    $0x10,%esi
    5321:	48 89 c7             	mov    %rax,%rdi
    5324:	e8 e7 cf ff ff       	call   2310 <_ZdlPvm@plt>
    5329:	c9                   	leave  
    532a:	c3                   	ret    
    532b:	90                   	nop

000000000000532c <_ZN3tbb6detail2d110task_arena12execute_implIvZZNS1_5graph12wait_for_allEvENKUlvE_clEvEUlvE_EET_RT0_>:
    532c:	f3 0f 1e fa          	endbr64 
    5330:	55                   	push   %rbp
    5331:	48 89 e5             	mov    %rsp,%rbp
    5334:	53                   	push   %rbx
    5335:	48 83 ec 38          	sub    $0x38,%rsp
    5339:	48 89 7d c8          	mov    %rdi,-0x38(%rbp)
    533d:	48 89 75 c0          	mov    %rsi,-0x40(%rbp)
    5341:	64 48 8b 04 25 28 00 	mov    %fs:0x28,%rax
    5348:	00 00 
    534a:	48 89 45 e8          	mov    %rax,-0x18(%rbp)
    534e:	31 c0                	xor    %eax,%eax
    5350:	48 8b 45 c8          	mov    -0x38(%rbp),%rax
    5354:	48 89 c7             	mov    %rax,%rdi
    5357:	e8 9e ec ff ff       	call   3ffa <_ZN3tbb6detail2d110task_arena10initializeEv>
    535c:	48 8b 55 c0          	mov    -0x40(%rbp),%rdx
    5360:	48 8d 45 d0          	lea    -0x30(%rbp),%rax
    5364:	48 89 d6             	mov    %rdx,%rsi
    5367:	48 89 c7             	mov    %rax,%rdi
    536a:	e8 9d 04 00 00       	call   580c <_ZN3tbb6detail2d119task_arena_functionIZZNS1_5graph12wait_for_allEvENKUlvE_clEvEUlvE_vEC1ERS5_>
    536f:	48 8b 45 c8          	mov    -0x38(%rbp),%rax
    5373:	48 8d 55 d0          	lea    -0x30(%rbp),%rdx
    5377:	48 89 d6             	mov    %rdx,%rsi
    537a:	48 89 c7             	mov    %rax,%rdi
    537d:	e8 de cf ff ff       	call   2360 <_ZN3tbb6detail2r17executeERNS0_2d115task_arena_baseERNS2_13delegate_baseE@plt>
    5382:	48 8d 45 d0          	lea    -0x30(%rbp),%rax
    5386:	48 89 c7             	mov    %rax,%rdi
    5389:	e8 bc 04 00 00       	call   584a <_ZNK3tbb6detail2d119task_arena_functionIZZNS1_5graph12wait_for_allEvENKUlvE_clEvEUlvE_vE14consume_resultEv>
    538e:	90                   	nop
    538f:	48 8d 45 d0          	lea    -0x30(%rbp),%rax
    5393:	48 89 c7             	mov    %rax,%rdi
    5396:	e8 33 ff ff ff       	call   52ce <_ZN3tbb6detail2d119task_arena_functionIZZNS1_5graph12wait_for_allEvENKUlvE_clEvEUlvE_vED1Ev>
    539b:	90                   	nop
    539c:	48 8b 45 e8          	mov    -0x18(%rbp),%rax
    53a0:	64 48 2b 04 25 28 00 	sub    %fs:0x28,%rax
    53a7:	00 00 
    53a9:	74 25                	je     53d0 <_ZN3tbb6detail2d110task_arena12execute_implIvZZNS1_5graph12wait_for_allEvENKUlvE_clEvEUlvE_EET_RT0_+0xa4>
    53ab:	eb 1e                	jmp    53cb <_ZN3tbb6detail2d110task_arena12execute_implIvZZNS1_5graph12wait_for_allEvENKUlvE_clEvEUlvE_EET_RT0_+0x9f>
    53ad:	f3 0f 1e fa          	endbr64 
    53b1:	48 89 c3             	mov    %rax,%rbx
    53b4:	48 8d 45 d0          	lea    -0x30(%rbp),%rax
    53b8:	48 89 c7             	mov    %rax,%rdi
    53bb:	e8 0e ff ff ff       	call   52ce <_ZN3tbb6detail2d119task_arena_functionIZZNS1_5graph12wait_for_allEvENKUlvE_clEvEUlvE_vED1Ev>
    53c0:	48 89 d8             	mov    %rbx,%rax
    53c3:	48 89 c7             	mov    %rax,%rdi
    53c6:	e8 25 d0 ff ff       	call   23f0 <_Unwind_Resume@plt>
    53cb:	e8 80 cf ff ff       	call   2350 <__stack_chk_fail@plt>
    53d0:	48 8b 5d f8          	mov    -0x8(%rbp),%rbx
    53d4:	c9                   	leave  
    53d5:	c3                   	ret    

00000000000053d6 <_ZN3tbb6detail2d014try_call_proxyIZNS0_2d15graph12wait_for_allEvEUlvE_EC1ES5_>:
    53d6:	f3 0f 1e fa          	endbr64 
    53da:	55                   	push   %rbp
    53db:	48 89 e5             	mov    %rsp,%rbp
    53de:	48 89 7d f8          	mov    %rdi,-0x8(%rbp)
    53e2:	48 89 75 f0          	mov    %rsi,-0x10(%rbp)
    53e6:	48 8b 45 f8          	mov    -0x8(%rbp),%rax
    53ea:	48 8b 55 f0          	mov    -0x10(%rbp),%rdx
    53ee:	48 89 10             	mov    %rdx,(%rax)
    53f1:	90                   	nop
    53f2:	5d                   	pop    %rbp
    53f3:	c3                   	ret    

00000000000053f4 <_ZN3tbb6detail2d015make_raii_guardIZNS0_2d15graph12wait_for_allEvEUlvE0_EENS1_10raii_guardIT_EES7_>:
    53f4:	f3 0f 1e fa          	endbr64 
    53f8:	55                   	push   %rbp
    53f9:	48 89 e5             	mov    %rsp,%rbp
    53fc:	48 83 ec 10          	sub    $0x10,%rsp
    5400:	48 89 7d f8          	mov    %rdi,-0x8(%rbp)
    5404:	48 89 75 f0          	mov    %rsi,-0x10(%rbp)
    5408:	48 8b 55 f0          	mov    -0x10(%rbp),%rdx
    540c:	48 8b 45 f8          	mov    -0x8(%rbp),%rax
    5410:	48 89 d6             	mov    %rdx,%rsi
    5413:	48 89 c7             	mov    %rax,%rdi
    5416:	e8 3f 04 00 00       	call   585a <_ZN3tbb6detail2d010raii_guardIZNS0_2d15graph12wait_for_allEvEUlvE0_EC1ES5_>
    541b:	48 8b 45 f8          	mov    -0x8(%rbp),%rax
    541f:	c9                   	leave  
    5420:	c3                   	ret    
    5421:	90                   	nop

0000000000005422 <_ZN3tbb6detail2d010raii_guardIZNS0_2d15graph12wait_for_allEvEUlvE0_ED1Ev>:
    5422:	f3 0f 1e fa          	endbr64 
    5426:	55                   	push   %rbp
    5427:	48 89 e5             	mov    %rsp,%rbp
    542a:	48 83 ec 10          	sub    $0x10,%rsp
    542e:	48 89 7d f8          	mov    %rdi,-0x8(%rbp)
    5432:	48 8b 45 f8          	mov    -0x8(%rbp),%rax
    5436:	0f b6 40 08          	movzbl 0x8(%rax),%eax
    543a:	84 c0                	test   %al,%al
    543c:	74 0c                	je     544a <_ZN3tbb6detail2d010raii_guardIZNS0_2d15graph12wait_for_allEvEUlvE0_ED1Ev+0x28>
    543e:	48 8b 45 f8          	mov    -0x8(%rbp),%rax
    5442:	48 89 c7             	mov    %rax,%rdi
    5445:	e8 28 f1 ff ff       	call   4572 <_ZZN3tbb6detail2d15graph12wait_for_allEvENKUlvE0_clEv>
    544a:	90                   	nop
    544b:	c9                   	leave  
    544c:	c3                   	ret    
    544d:	90                   	nop

000000000000544e <_ZN3tbb6detail2d010raii_guardIZNS0_2d15graph12wait_for_allEvEUlvE0_E7dismissEv>:
    544e:	f3 0f 1e fa          	endbr64 
    5452:	55                   	push   %rbp
    5453:	48 89 e5             	mov    %rsp,%rbp
    5456:	48 89 7d f8          	mov    %rdi,-0x8(%rbp)
    545a:	48 8b 45 f8          	mov    -0x8(%rbp),%rax
    545e:	c6 40 08 00          	movb   $0x0,0x8(%rax)
    5462:	90                   	nop
    5463:	5d                   	pop    %rbp
    5464:	c3                   	ret    

0000000000005465 <_ZSt7forwardIRN3tbb6detail2d122small_object_allocatorEEOT_RNSt16remove_referenceIS5_E4typeE>:
    5465:	f3 0f 1e fa          	endbr64 
    5469:	55                   	push   %rbp
    546a:	48 89 e5             	mov    %rsp,%rbp
    546d:	48 89 7d f8          	mov    %rdi,-0x8(%rbp)
    5471:	48 8b 45 f8          	mov    -0x8(%rbp),%rax
    5475:	5d                   	pop    %rbp
    5476:	c3                   	ret    
    5477:	90                   	nop

0000000000005478 <_ZNSt12_Vector_baseIPN3tbb6detail2d110graph_taskENS2_23cache_aligned_allocatorIS4_EEED1Ev>:
    5478:	f3 0f 1e fa          	endbr64 
    547c:	55                   	push   %rbp
    547d:	48 89 e5             	mov    %rsp,%rbp
    5480:	48 83 ec 10          	sub    $0x10,%rsp
    5484:	48 89 7d f8          	mov    %rdi,-0x8(%rbp)
    5488:	48 8b 45 f8          	mov    -0x8(%rbp),%rax
    548c:	48 8b 50 10          	mov    0x10(%rax),%rdx
    5490:	48 8b 45 f8          	mov    -0x8(%rbp),%rax
    5494:	48 8b 08             	mov    (%rax),%rcx
    5497:	48 89 d0             	mov    %rdx,%rax
    549a:	48 29 c8             	sub    %rcx,%rax
    549d:	48 c1 f8 03          	sar    $0x3,%rax
    54a1:	48 89 c2             	mov    %rax,%rdx
    54a4:	48 8b 45 f8          	mov    -0x8(%rbp),%rax
    54a8:	48 8b 08             	mov    (%rax),%rcx
    54ab:	48 8b 45 f8          	mov    -0x8(%rbp),%rax
    54af:	48 89 ce             	mov    %rcx,%rsi
    54b2:	48 89 c7             	mov    %rax,%rdi
    54b5:	e8 c6 03 00 00       	call   5880 <_ZNSt12_Vector_baseIPN3tbb6detail2d110graph_taskENS2_23cache_aligned_allocatorIS4_EEE13_M_deallocateEPS4_m>
    54ba:	90                   	nop
    54bb:	c9                   	leave  
    54bc:	c3                   	ret    
    54bd:	90                   	nop

00000000000054be <_ZNSt12_Vector_baseIPN3tbb6detail2d110graph_taskENS2_23cache_aligned_allocatorIS4_EEE19_M_get_Tp_allocatorEv>:
    54be:	f3 0f 1e fa          	endbr64 
    54c2:	55                   	push   %rbp
    54c3:	48 89 e5             	mov    %rsp,%rbp
    54c6:	48 89 7d f8          	mov    %rdi,-0x8(%rbp)
    54ca:	48 8b 45 f8          	mov    -0x8(%rbp),%rax
    54ce:	5d                   	pop    %rbp
    54cf:	c3                   	ret    

00000000000054d0 <_ZSt8_DestroyIPPN3tbb6detail2d110graph_taskENS2_23cache_aligned_allocatorIS4_EEEvT_S8_RT0_>:
    54d0:	f3 0f 1e fa          	endbr64 
    54d4:	55                   	push   %rbp
    54d5:	48 89 e5             	mov    %rsp,%rbp
    54d8:	48 83 ec 20          	sub    $0x20,%rsp
    54dc:	48 89 7d f8          	mov    %rdi,-0x8(%rbp)
    54e0:	48 89 75 f0          	mov    %rsi,-0x10(%rbp)
    54e4:	48 89 55 e8          	mov    %rdx,-0x18(%rbp)
    54e8:	eb 23                	jmp    550d <_ZSt8_DestroyIPPN3tbb6detail2d110graph_taskENS2_23cache_aligned_allocatorIS4_EEEvT_S8_RT0_+0x3d>
    54ea:	48 8b 45 f8          	mov    -0x8(%rbp),%rax
    54ee:	48 89 c7             	mov    %rax,%rdi
    54f1:	e8 c3 03 00 00       	call   58b9 <_ZSt11__addressofIPN3tbb6detail2d110graph_taskEEPT_RS5_>
    54f6:	48 89 c2             	mov    %rax,%rdx
    54f9:	48 8b 45 e8          	mov    -0x18(%rbp),%rax
    54fd:	48 89 d6             	mov    %rdx,%rsi
    5500:	48 89 c7             	mov    %rax,%rdi
    5503:	e8 c3 03 00 00       	call   58cb <_ZNSt16allocator_traitsIN3tbb6detail2d123cache_aligned_allocatorIPNS2_10graph_taskEEEE7destroyIS5_EEvRS6_PT_>
    5508:	48 83 45 f8 08       	addq   $0x8,-0x8(%rbp)
    550d:	48 8b 45 f8          	mov    -0x8(%rbp),%rax
    5511:	48 3b 45 f0          	cmp    -0x10(%rbp),%rax
    5515:	75 d3                	jne    54ea <_ZSt8_DestroyIPPN3tbb6detail2d110graph_taskENS2_23cache_aligned_allocatorIS4_EEEvT_S8_RT0_+0x1a>
    5517:	90                   	nop
    5518:	90                   	nop
    5519:	c9                   	leave  
    551a:	c3                   	ret    
    551b:	90                   	nop

000000000000551c <_ZN3tbb6detail2d113adaptive_modeINS1_19auto_partition_typeEEC1Ev>:
    551c:	f3 0f 1e fa          	endbr64 
    5520:	55                   	push   %rbp
    5521:	48 89 e5             	mov    %rsp,%rbp
    5524:	48 83 ec 10          	sub    $0x10,%rsp
    5528:	48 89 7d f8          	mov    %rdi,-0x8(%rbp)
    552c:	e8 93 f2 ff ff       	call   47c4 <_ZN3tbb6detail2d136get_initial_auto_partitioner_divisorEv>
    5531:	48 c1 e8 02          	shr    $0x2,%rax
    5535:	48 89 c2             	mov    %rax,%rdx
    5538:	48 8b 45 f8          	mov    -0x8(%rbp),%rax
    553c:	48 89 10             	mov    %rdx,(%rax)
    553f:	90                   	nop
    5540:	c9                   	leave  
    5541:	c3                   	ret    

0000000000005542 <_ZN3tbb6detail2d113adaptive_modeINS1_19auto_partition_typeEEC1ERS4_NS0_2d05splitE>:
    5542:	f3 0f 1e fa          	endbr64 
    5546:	55                   	push   %rbp
    5547:	48 89 e5             	mov    %rsp,%rbp
    554a:	48 83 ec 10          	sub    $0x10,%rsp
    554e:	48 89 7d f8          	mov    %rdi,-0x8(%rbp)
    5552:	48 89 75 f0          	mov    %rsi,-0x10(%rbp)
    5556:	48 8b 55 f0          	mov    -0x10(%rbp),%rdx
    555a:	48 8b 45 f8          	mov    -0x8(%rbp),%rax
    555e:	48 89 d6             	mov    %rdx,%rsi
    5561:	48 89 c7             	mov    %rax,%rdi
    5564:	e8 97 03 00 00       	call   5900 <_ZN3tbb6detail2d113adaptive_modeINS1_19auto_partition_typeEE8do_splitERS4_NS0_2d05splitE>
    5569:	48 8b 55 f8          	mov    -0x8(%rbp),%rdx
    556d:	48 89 02             	mov    %rax,(%rdx)
    5570:	90                   	nop
    5571:	c9                   	leave  
    5572:	c3                   	ret    

0000000000005573 <_ZNSt6vectorIiSaIiEE11_S_max_sizeERKS0_>:
    5573:	f3 0f 1e fa          	endbr64 
    5577:	55                   	push   %rbp
    5578:	48 89 e5             	mov    %rsp,%rbp
    557b:	48 83 ec 30          	sub    $0x30,%rsp
    557f:	48 89 7d d8          	mov    %rdi,-0x28(%rbp)
    5583:	64 48 8b 04 25 28 00 	mov    %fs:0x28,%rax
    558a:	00 00 
    558c:	48 89 45 f8          	mov    %rax,-0x8(%rbp)
    5590:	31 c0                	xor    %eax,%eax
    5592:	48 b8 ff ff ff ff ff 	movabs $0x1fffffffffffffff,%rax
    5599:	ff ff 1f 
    559c:	48 89 45 e8          	mov    %rax,-0x18(%rbp)
    55a0:	48 8b 45 d8          	mov    -0x28(%rbp),%rax
    55a4:	48 89 c7             	mov    %rax,%rdi
    55a7:	e8 a5 03 00 00       	call   5951 <_ZNSt16allocator_traitsISaIiEE8max_sizeERKS0_>
    55ac:	48 89 45 f0          	mov    %rax,-0x10(%rbp)
    55b0:	48 8d 55 f0          	lea    -0x10(%rbp),%rdx
    55b4:	48 8d 45 e8          	lea    -0x18(%rbp),%rax
    55b8:	48 89 d6             	mov    %rdx,%rsi
    55bb:	48 89 c7             	mov    %rax,%rdi
    55be:	e8 2c e6 ff ff       	call   3bef <_ZSt3minImERKT_S2_S2_>
    55c3:	48 8b 00             	mov    (%rax),%rax
    55c6:	48 8b 55 f8          	mov    -0x8(%rbp),%rdx
    55ca:	64 48 2b 14 25 28 00 	sub    %fs:0x28,%rdx
    55d1:	00 00 
    55d3:	74 05                	je     55da <_ZNSt6vectorIiSaIiEE11_S_max_sizeERKS0_+0x67>
    55d5:	e8 76 cd ff ff       	call   2350 <__stack_chk_fail@plt>
    55da:	c9                   	leave  
    55db:	c3                   	ret    

00000000000055dc <_ZNSt12_Vector_baseIiSaIiEE12_Vector_implC1ERKS0_>:
    55dc:	f3 0f 1e fa          	endbr64 
    55e0:	55                   	push   %rbp
    55e1:	48 89 e5             	mov    %rsp,%rbp
    55e4:	48 83 ec 10          	sub    $0x10,%rsp
    55e8:	48 89 7d f8          	mov    %rdi,-0x8(%rbp)
    55ec:	48 89 75 f0          	mov    %rsi,-0x10(%rbp)
    55f0:	48 8b 55 f0          	mov    -0x10(%rbp),%rdx
    55f4:	48 8b 45 f8          	mov    -0x8(%rbp),%rax
    55f8:	48 89 d6             	mov    %rdx,%rsi
    55fb:	48 89 c7             	mov    %rax,%rdi
    55fe:	e8 59 fb ff ff       	call   515c <_ZNSaIiEC1ERKS_>
    5603:	48 8b 45 f8          	mov    -0x8(%rbp),%rax
    5607:	48 89 c7             	mov    %rax,%rdi
    560a:	e8 61 03 00 00       	call   5970 <_ZNSt12_Vector_baseIiSaIiEE17_Vector_impl_dataC1Ev>
    560f:	90                   	nop
    5610:	c9                   	leave  
    5611:	c3                   	ret    

0000000000005612 <_ZNSt12_Vector_baseIiSaIiEE17_M_create_storageEm>:
    5612:	f3 0f 1e fa          	endbr64 
    5616:	55                   	push   %rbp
    5617:	48 89 e5             	mov    %rsp,%rbp
    561a:	48 83 ec 10          	sub    $0x10,%rsp
    561e:	48 89 7d f8          	mov    %rdi,-0x8(%rbp)
    5622:	48 89 75 f0          	mov    %rsi,-0x10(%rbp)
    5626:	48 8b 55 f0          	mov    -0x10(%rbp),%rdx
    562a:	48 8b 45 f8          	mov    -0x8(%rbp),%rax
    562e:	48 89 d6             	mov    %rdx,%rsi
    5631:	48 89 c7             	mov    %rax,%rdi
    5634:	e8 69 03 00 00       	call   59a2 <_ZNSt12_Vector_baseIiSaIiEE11_M_allocateEm>
    5639:	48 8b 55 f8          	mov    -0x8(%rbp),%rdx
    563d:	48 89 02             	mov    %rax,(%rdx)
    5640:	48 8b 45 f8          	mov    -0x8(%rbp),%rax
    5644:	48 8b 10             	mov    (%rax),%rdx
    5647:	48 8b 45 f8          	mov    -0x8(%rbp),%rax
    564b:	48 89 50 08          	mov    %rdx,0x8(%rax)
    564f:	48 8b 45 f8          	mov    -0x8(%rbp),%rax
    5653:	48 8b 10             	mov    (%rax),%rdx
    5656:	48 8b 45 f0          	mov    -0x10(%rbp),%rax
    565a:	48 c1 e0 02          	shl    $0x2,%rax
    565e:	48 01 c2             	add    %rax,%rdx
    5661:	48 8b 45 f8          	mov    -0x8(%rbp),%rax
    5665:	48 89 50 10          	mov    %rdx,0x10(%rax)
    5669:	90                   	nop
    566a:	c9                   	leave  
    566b:	c3                   	ret    

000000000000566c <_ZSt27__uninitialized_default_n_aIPimiET_S1_T0_RSaIT1_E>:
    566c:	f3 0f 1e fa          	endbr64 
    5670:	55                   	push   %rbp
    5671:	48 89 e5             	mov    %rsp,%rbp
    5674:	48 83 ec 20          	sub    $0x20,%rsp
    5678:	48 89 7d f8          	mov    %rdi,-0x8(%rbp)
    567c:	48 89 75 f0          	mov    %rsi,-0x10(%rbp)
    5680:	48 89 55 e8          	mov    %rdx,-0x18(%rbp)
    5684:	48 8b 55 f0          	mov    -0x10(%rbp),%rdx
    5688:	48 8b 45 f8          	mov    -0x8(%rbp),%rax
    568c:	48 89 d6             	mov    %rdx,%rsi
    568f:	48 89 c7             	mov    %rax,%rdi
    5692:	e8 42 03 00 00       	call   59d9 <_ZSt25__uninitialized_default_nIPimET_S1_T0_>
    5697:	c9                   	leave  
    5698:	c3                   	ret    

0000000000005699 <_ZSt8_DestroyIPiEvT_S1_>:
    5699:	f3 0f 1e fa          	endbr64 
    569d:	55                   	push   %rbp
    569e:	48 89 e5             	mov    %rsp,%rbp
    56a1:	48 83 ec 10          	sub    $0x10,%rsp
    56a5:	48 89 7d f8          	mov    %rdi,-0x8(%rbp)
    56a9:	48 89 75 f0          	mov    %rsi,-0x10(%rbp)
    56ad:	48 8b 55 f0          	mov    -0x10(%rbp),%rdx
    56b1:	48 8b 45 f8          	mov    -0x8(%rbp),%rax
    56b5:	48 89 d6             	mov    %rdx,%rsi
    56b8:	48 89 c7             	mov    %rax,%rdi
    56bb:	e8 46 03 00 00       	call   5a06 <_ZNSt12_Destroy_auxILb1EE9__destroyIPiEEvT_S3_>
    56c0:	90                   	nop
    56c1:	c9                   	leave  
    56c2:	c3                   	ret    
    56c3:	90                   	nop

00000000000056c4 <_ZN9__gnu_cxx13new_allocatorIiEC1ERKS1_>:
    56c4:	f3 0f 1e fa          	endbr64 
    56c8:	55                   	push   %rbp
    56c9:	48 89 e5             	mov    %rsp,%rbp
    56cc:	48 89 7d f8          	mov    %rdi,-0x8(%rbp)
    56d0:	48 89 75 f0          	mov    %rsi,-0x10(%rbp)
    56d4:	90                   	nop
    56d5:	5d                   	pop    %rbp
    56d6:	c3                   	ret    

00000000000056d7 <_ZNSt16allocator_traitsISaIiEE10deallocateERS0_Pim>:
    56d7:	f3 0f 1e fa          	endbr64 
    56db:	55                   	push   %rbp
    56dc:	48 89 e5             	mov    %rsp,%rbp
    56df:	48 83 ec 20          	sub    $0x20,%rsp
    56e3:	48 89 7d f8          	mov    %rdi,-0x8(%rbp)
    56e7:	48 89 75 f0          	mov    %rsi,-0x10(%rbp)
    56eb:	48 89 55 e8          	mov    %rdx,-0x18(%rbp)
    56ef:	48 8b 55 e8          	mov    -0x18(%rbp),%rdx
    56f3:	48 8b 4d f0          	mov    -0x10(%rbp),%rcx
    56f7:	48 8b 45 f8          	mov    -0x8(%rbp),%rax
    56fb:	48 89 ce             	mov    %rcx,%rsi
    56fe:	48 89 c7             	mov    %rax,%rdi
    5701:	e8 14 03 00 00       	call   5a1a <_ZN9__gnu_cxx13new_allocatorIiE10deallocateEPim>
    5706:	90                   	nop
    5707:	c9                   	leave  
    5708:	c3                   	ret    
    5709:	90                   	nop

000000000000570a <_ZNSt6atomicIN3tbb6detail2d013do_once_stateEE23compare_exchange_strongERS3_S3_St12memory_orderS6_>:
    570a:	f3 0f 1e fa          	endbr64 
    570e:	55                   	push   %rbp
    570f:	48 89 e5             	mov    %rsp,%rbp
    5712:	41 54                	push   %r12
    5714:	53                   	push   %rbx
    5715:	48 83 ec 20          	sub    $0x20,%rsp
    5719:	48 89 7d e8          	mov    %rdi,-0x18(%rbp)
    571d:	48 89 75 e0          	mov    %rsi,-0x20(%rbp)
    5721:	89 55 dc             	mov    %edx,-0x24(%rbp)
    5724:	89 4d d8             	mov    %ecx,-0x28(%rbp)
    5727:	44 89 45 d4          	mov    %r8d,-0x2c(%rbp)
    572b:	48 8d 45 dc          	lea    -0x24(%rbp),%rax
    572f:	48 89 c7             	mov    %rax,%rdi
    5732:	e8 48 f4 ff ff       	call   4b7f <_ZSt11__addressofIN3tbb6detail2d013do_once_stateEEPT_RS4_>
    5737:	8b 00                	mov    (%rax),%eax
    5739:	41 89 c4             	mov    %eax,%r12d
    573c:	48 8b 45 e0          	mov    -0x20(%rbp),%rax
    5740:	48 89 c7             	mov    %rax,%rdi
    5743:	e8 37 f4 ff ff       	call   4b7f <_ZSt11__addressofIN3tbb6detail2d013do_once_stateEEPT_RS4_>
    5748:	48 89 c3             	mov    %rax,%rbx
    574b:	48 8b 45 e8          	mov    -0x18(%rbp),%rax
    574f:	48 89 c7             	mov    %rax,%rdi
    5752:	e8 28 f4 ff ff       	call   4b7f <_ZSt11__addressofIN3tbb6detail2d013do_once_stateEEPT_RS4_>
    5757:	48 89 c2             	mov    %rax,%rdx
    575a:	8b 03                	mov    (%rbx),%eax
    575c:	f0 44 0f b1 22       	lock cmpxchg %r12d,(%rdx)
    5761:	89 c1                	mov    %eax,%ecx
    5763:	0f 94 c0             	sete   %al
    5766:	84 c0                	test   %al,%al
    5768:	75 02                	jne    576c <_ZNSt6atomicIN3tbb6detail2d013do_once_stateEE23compare_exchange_strongERS3_S3_St12memory_orderS6_+0x62>
    576a:	89 0b                	mov    %ecx,(%rbx)
    576c:	48 83 c4 20          	add    $0x20,%rsp
    5770:	5b                   	pop    %rbx
    5771:	41 5c                	pop    %r12
    5773:	5d                   	pop    %rbp
    5774:	c3                   	ret    

0000000000005775 <_ZN3tbb6detail2d015spin_wait_whileINS1_13do_once_stateEZNS1_18spin_wait_while_eqIS3_S3_EET_RKSt6atomicIS5_ET0_St12memory_orderEUlS3_E_EES5_S9_SA_SB_>:
    5775:	f3 0f 1e fa          	endbr64 
    5779:	55                   	push   %rbp
    577a:	48 89 e5             	mov    %rsp,%rbp
    577d:	48 83 ec 30          	sub    $0x30,%rsp
    5781:	48 89 7d e8          	mov    %rdi,-0x18(%rbp)
    5785:	48 89 75 e0          	mov    %rsi,-0x20(%rbp)
    5789:	89 55 dc             	mov    %edx,-0x24(%rbp)
    578c:	64 48 8b 04 25 28 00 	mov    %fs:0x28,%rax
    5793:	00 00 
    5795:	48 89 45 f8          	mov    %rax,-0x8(%rbp)
    5799:	31 c0                	xor    %eax,%eax
    579b:	48 8d 45 f0          	lea    -0x10(%rbp),%rax
    579f:	48 89 c7             	mov    %rax,%rdi
    57a2:	e8 9f e3 ff ff       	call   3b46 <_ZN3tbb6detail2d014atomic_backoffC1Ev>
    57a7:	8b 55 dc             	mov    -0x24(%rbp),%edx
    57aa:	48 8b 45 e8          	mov    -0x18(%rbp),%rax
    57ae:	89 d6                	mov    %edx,%esi
    57b0:	48 89 c7             	mov    %rax,%rdi
    57b3:	e8 dc f4 ff ff       	call   4c94 <_ZNKSt6atomicIN3tbb6detail2d013do_once_stateEE4loadESt12memory_order>
    57b8:	89 45 f4             	mov    %eax,-0xc(%rbp)
    57bb:	eb 20                	jmp    57dd <_ZN3tbb6detail2d015spin_wait_whileINS1_13do_once_stateEZNS1_18spin_wait_while_eqIS3_S3_EET_RKSt6atomicIS5_ET0_St12memory_orderEUlS3_E_EES5_S9_SA_SB_+0x68>
    57bd:	48 8d 45 f0          	lea    -0x10(%rbp),%rax
    57c1:	48 89 c7             	mov    %rax,%rdi
    57c4:	e8 97 e3 ff ff       	call   3b60 <_ZN3tbb6detail2d014atomic_backoff5pauseEv>
    57c9:	8b 55 dc             	mov    -0x24(%rbp),%edx
    57cc:	48 8b 45 e8          	mov    -0x18(%rbp),%rax
    57d0:	89 d6                	mov    %edx,%esi
    57d2:	48 89 c7             	mov    %rax,%rdi
    57d5:	e8 ba f4 ff ff       	call   4c94 <_ZNKSt6atomicIN3tbb6detail2d013do_once_stateEE4loadESt12memory_order>
    57da:	89 45 f4             	mov    %eax,-0xc(%rbp)
    57dd:	8b 55 f4             	mov    -0xc(%rbp),%edx
    57e0:	48 8d 45 e0          	lea    -0x20(%rbp),%rax
    57e4:	89 d6                	mov    %edx,%esi
    57e6:	48 89 c7             	mov    %rax,%rdi
    57e9:	e8 4c fa ff ff       	call   523a <_ZZN3tbb6detail2d018spin_wait_while_eqINS1_13do_once_stateES3_EET_RKSt6atomicIS4_ET0_St12memory_orderENKUlS3_E_clES3_>
    57ee:	84 c0                	test   %al,%al
    57f0:	75 cb                	jne    57bd <_ZN3tbb6detail2d015spin_wait_whileINS1_13do_once_stateEZNS1_18spin_wait_while_eqIS3_S3_EET_RKSt6atomicIS5_ET0_St12memory_orderEUlS3_E_EES5_S9_SA_SB_+0x48>
    57f2:	8b 45 f4             	mov    -0xc(%rbp),%eax
    57f5:	48 8b 55 f8          	mov    -0x8(%rbp),%rdx
    57f9:	64 48 2b 14 25 28 00 	sub    %fs:0x28,%rdx
    5800:	00 00 
    5802:	74 05                	je     5809 <_ZN3tbb6detail2d015spin_wait_whileINS1_13do_once_stateEZNS1_18spin_wait_while_eqIS3_S3_EET_RKSt6atomicIS5_ET0_St12memory_orderEUlS3_E_EES5_S9_SA_SB_+0x94>
    5804:	e8 47 cb ff ff       	call   2350 <__stack_chk_fail@plt>
    5809:	c9                   	leave  
    580a:	c3                   	ret    
    580b:	90                   	nop

000000000000580c <_ZN3tbb6detail2d119task_arena_functionIZZNS1_5graph12wait_for_allEvENKUlvE_clEvEUlvE_vEC1ERS5_>:
    580c:	f3 0f 1e fa          	endbr64 
    5810:	55                   	push   %rbp
    5811:	48 89 e5             	mov    %rsp,%rbp
    5814:	48 83 ec 10          	sub    $0x10,%rsp
    5818:	48 89 7d f8          	mov    %rdi,-0x8(%rbp)
    581c:	48 89 75 f0          	mov    %rsi,-0x10(%rbp)
    5820:	48 8b 45 f8          	mov    -0x8(%rbp),%rax
    5824:	48 89 c7             	mov    %rax,%rdi
    5827:	e8 84 fa ff ff       	call   52b0 <_ZN3tbb6detail2d113delegate_baseC1Ev>
    582c:	48 8d 15 05 62 00 00 	lea    0x6205(%rip),%rdx        # ba38 <_ZTVN3tbb6detail2d119task_arena_functionIZZNS1_5graph12wait_for_allEvENKUlvE_clEvEUlvE_vEE+0x10>
    5833:	48 8b 45 f8          	mov    -0x8(%rbp),%rax
    5837:	48 89 10             	mov    %rdx,(%rax)
    583a:	48 8b 45 f8          	mov    -0x8(%rbp),%rax
    583e:	48 8b 55 f0          	mov    -0x10(%rbp),%rdx
    5842:	48 89 50 08          	mov    %rdx,0x8(%rax)
    5846:	90                   	nop
    5847:	c9                   	leave  
    5848:	c3                   	ret    
    5849:	90                   	nop

000000000000584a <_ZNK3tbb6detail2d119task_arena_functionIZZNS1_5graph12wait_for_allEvENKUlvE_clEvEUlvE_vE14consume_resultEv>:
    584a:	f3 0f 1e fa          	endbr64 
    584e:	55                   	push   %rbp
    584f:	48 89 e5             	mov    %rsp,%rbp
    5852:	48 89 7d f8          	mov    %rdi,-0x8(%rbp)
    5856:	90                   	nop
    5857:	5d                   	pop    %rbp
    5858:	c3                   	ret    
    5859:	90                   	nop

000000000000585a <_ZN3tbb6detail2d010raii_guardIZNS0_2d15graph12wait_for_allEvEUlvE0_EC1ES5_>:
    585a:	f3 0f 1e fa          	endbr64 
    585e:	55                   	push   %rbp
    585f:	48 89 e5             	mov    %rsp,%rbp
    5862:	48 89 7d f8          	mov    %rdi,-0x8(%rbp)
    5866:	48 89 75 f0          	mov    %rsi,-0x10(%rbp)
    586a:	48 8b 45 f8          	mov    -0x8(%rbp),%rax
    586e:	48 8b 55 f0          	mov    -0x10(%rbp),%rdx
    5872:	48 89 10             	mov    %rdx,(%rax)
    5875:	48 8b 45 f8          	mov    -0x8(%rbp),%rax
    5879:	c6 40 08 01          	movb   $0x1,0x8(%rax)
    587d:	90                   	nop
    587e:	5d                   	pop    %rbp
    587f:	c3                   	ret    

0000000000005880 <_ZNSt12_Vector_baseIPN3tbb6detail2d110graph_taskENS2_23cache_aligned_allocatorIS4_EEE13_M_deallocateEPS4_m>:
    5880:	f3 0f 1e fa          	endbr64 
    5884:	55                   	push   %rbp
    5885:	48 89 e5             	mov    %rsp,%rbp
    5888:	48 83 ec 20          	sub    $0x20,%rsp
    588c:	48 89 7d f8          	mov    %rdi,-0x8(%rbp)
    5890:	48 89 75 f0          	mov    %rsi,-0x10(%rbp)
    5894:	48 89 55 e8          	mov    %rdx,-0x18(%rbp)
    5898:	48 83 7d f0 00       	cmpq   $0x0,-0x10(%rbp)
    589d:	74 17                	je     58b6 <_ZNSt12_Vector_baseIPN3tbb6detail2d110graph_taskENS2_23cache_aligned_allocatorIS4_EEE13_M_deallocateEPS4_m+0x36>
    589f:	48 8b 45 f8          	mov    -0x8(%rbp),%rax
    58a3:	48 8b 55 e8          	mov    -0x18(%rbp),%rdx
    58a7:	48 8b 4d f0          	mov    -0x10(%rbp),%rcx
    58ab:	48 89 ce             	mov    %rcx,%rsi
    58ae:	48 89 c7             	mov    %rax,%rdi
    58b1:	e8 99 01 00 00       	call   5a4f <_ZNSt16allocator_traitsIN3tbb6detail2d123cache_aligned_allocatorIPNS2_10graph_taskEEEE10deallocateERS6_PS5_m>
    58b6:	90                   	nop
    58b7:	c9                   	leave  
    58b8:	c3                   	ret    

00000000000058b9 <_ZSt11__addressofIPN3tbb6detail2d110graph_taskEEPT_RS5_>:
    58b9:	f3 0f 1e fa          	endbr64 
    58bd:	55                   	push   %rbp
    58be:	48 89 e5             	mov    %rsp,%rbp
    58c1:	48 89 7d f8          	mov    %rdi,-0x8(%rbp)
    58c5:	48 8b 45 f8          	mov    -0x8(%rbp),%rax
    58c9:	5d                   	pop    %rbp
    58ca:	c3                   	ret    

00000000000058cb <_ZNSt16allocator_traitsIN3tbb6detail2d123cache_aligned_allocatorIPNS2_10graph_taskEEEE7destroyIS5_EEvRS6_PT_>:
    58cb:	f3 0f 1e fa          	endbr64 
    58cf:	55                   	push   %rbp
    58d0:	48 89 e5             	mov    %rsp,%rbp
    58d3:	48 83 ec 10          	sub    $0x10,%rsp
    58d7:	48 89 7d f8          	mov    %rdi,-0x8(%rbp)
    58db:	48 89 75 f0          	mov    %rsi,-0x10(%rbp)
    58df:	48 8b 4d f0          	mov    -0x10(%rbp),%rcx
    58e3:	48 8b 45 f8          	mov    -0x8(%rbp),%rax
    58e7:	ba 00 00 00 00       	mov    $0x0,%edx
    58ec:	48 89 ce             	mov    %rcx,%rsi
    58ef:	48 89 c7             	mov    %rax,%rdi
    58f2:	b8 00 00 00 00       	mov    $0x0,%eax
    58f7:	e8 85 01 00 00       	call   5a81 <_ZNSt16allocator_traitsIN3tbb6detail2d123cache_aligned_allocatorIPNS2_10graph_taskEEEE10_S_destroyIS6_S5_EEvRT_PT0_z>
    58fc:	90                   	nop
    58fd:	c9                   	leave  
    58fe:	c3                   	ret    
    58ff:	90                   	nop

0000000000005900 <_ZN3tbb6detail2d113adaptive_modeINS1_19auto_partition_typeEE8do_splitERS4_NS0_2d05splitE>:
    5900:	f3 0f 1e fa          	endbr64 
    5904:	55                   	push   %rbp
    5905:	48 89 e5             	mov    %rsp,%rbp
    5908:	48 89 7d f8          	mov    %rdi,-0x8(%rbp)
    590c:	48 89 75 f0          	mov    %rsi,-0x10(%rbp)
    5910:	48 8b 45 f0          	mov    -0x10(%rbp),%rax
    5914:	48 8b 00             	mov    (%rax),%rax
    5917:	48 d1 e8             	shr    %rax
    591a:	48 89 c2             	mov    %rax,%rdx
    591d:	48 8b 45 f0          	mov    -0x10(%rbp),%rax
    5921:	48 89 10             	mov    %rdx,(%rax)
    5924:	48 8b 45 f0          	mov    -0x10(%rbp),%rax
    5928:	48 8b 00             	mov    (%rax),%rax
    592b:	5d                   	pop    %rbp
    592c:	c3                   	ret    
    592d:	90                   	nop

000000000000592e <_ZN3tbb6detail2d19wait_nodeD1Ev>:
    592e:	f3 0f 1e fa          	endbr64 
    5932:	55                   	push   %rbp
    5933:	48 89 e5             	mov    %rsp,%rbp
    5936:	48 83 ec 10          	sub    $0x10,%rsp
    593a:	48 89 7d f8          	mov    %rdi,-0x8(%rbp)
    593e:	48 8b 45 f8          	mov    -0x8(%rbp),%rax
    5942:	48 83 c0 10          	add    $0x10,%rax
    5946:	48 89 c7             	mov    %rax,%rdi
    5949:	e8 9e e3 ff ff       	call   3cec <_ZN3tbb6detail2d112wait_contextD1Ev>
    594e:	90                   	nop
    594f:	c9                   	leave  
    5950:	c3                   	ret    

0000000000005951 <_ZNSt16allocator_traitsISaIiEE8max_sizeERKS0_>:
    5951:	f3 0f 1e fa          	endbr64 
    5955:	55                   	push   %rbp
    5956:	48 89 e5             	mov    %rsp,%rbp
    5959:	48 83 ec 10          	sub    $0x10,%rsp
    595d:	48 89 7d f8          	mov    %rdi,-0x8(%rbp)
    5961:	48 8b 45 f8          	mov    -0x8(%rbp),%rax
    5965:	48 89 c7             	mov    %rax,%rdi
    5968:	e8 a7 01 00 00       	call   5b14 <_ZNK9__gnu_cxx13new_allocatorIiE8max_sizeEv>
    596d:	c9                   	leave  
    596e:	c3                   	ret    
    596f:	90                   	nop

0000000000005970 <_ZNSt12_Vector_baseIiSaIiEE17_Vector_impl_dataC1Ev>:
    5970:	f3 0f 1e fa          	endbr64 
    5974:	55                   	push   %rbp
    5975:	48 89 e5             	mov    %rsp,%rbp
    5978:	48 89 7d f8          	mov    %rdi,-0x8(%rbp)
    597c:	48 8b 45 f8          	mov    -0x8(%rbp),%rax
    5980:	48 c7 00 00 00 00 00 	movq   $0x0,(%rax)
    5987:	48 8b 45 f8          	mov    -0x8(%rbp),%rax
    598b:	48 c7 40 08 00 00 00 	movq   $0x0,0x8(%rax)
    5992:	00 
    5993:	48 8b 45 f8          	mov    -0x8(%rbp),%rax
    5997:	48 c7 40 10 00 00 00 	movq   $0x0,0x10(%rax)
    599e:	00 
    599f:	90                   	nop
    59a0:	5d                   	pop    %rbp
    59a1:	c3                   	ret    

00000000000059a2 <_ZNSt12_Vector_baseIiSaIiEE11_M_allocateEm>:
    59a2:	f3 0f 1e fa          	endbr64 
    59a6:	55                   	push   %rbp
    59a7:	48 89 e5             	mov    %rsp,%rbp
    59aa:	48 83 ec 10          	sub    $0x10,%rsp
    59ae:	48 89 7d f8          	mov    %rdi,-0x8(%rbp)
    59b2:	48 89 75 f0          	mov    %rsi,-0x10(%rbp)
    59b6:	48 83 7d f0 00       	cmpq   $0x0,-0x10(%rbp)
    59bb:	74 15                	je     59d2 <_ZNSt12_Vector_baseIiSaIiEE11_M_allocateEm+0x30>
    59bd:	48 8b 45 f8          	mov    -0x8(%rbp),%rax
    59c1:	48 8b 55 f0          	mov    -0x10(%rbp),%rdx
    59c5:	48 89 d6             	mov    %rdx,%rsi
    59c8:	48 89 c7             	mov    %rax,%rdi
    59cb:	e8 62 01 00 00       	call   5b32 <_ZNSt16allocator_traitsISaIiEE8allocateERS0_m>
    59d0:	eb 05                	jmp    59d7 <_ZNSt12_Vector_baseIiSaIiEE11_M_allocateEm+0x35>
    59d2:	b8 00 00 00 00       	mov    $0x0,%eax
    59d7:	c9                   	leave  
    59d8:	c3                   	ret    

00000000000059d9 <_ZSt25__uninitialized_default_nIPimET_S1_T0_>:
    59d9:	f3 0f 1e fa          	endbr64 
    59dd:	55                   	push   %rbp
    59de:	48 89 e5             	mov    %rsp,%rbp
    59e1:	48 83 ec 20          	sub    $0x20,%rsp
    59e5:	48 89 7d e8          	mov    %rdi,-0x18(%rbp)
    59e9:	48 89 75 e0          	mov    %rsi,-0x20(%rbp)
    59ed:	c6 45 ff 01          	movb   $0x1,-0x1(%rbp)
    59f1:	48 8b 55 e0          	mov    -0x20(%rbp),%rdx
    59f5:	48 8b 45 e8          	mov    -0x18(%rbp),%rax
    59f9:	48 89 d6             	mov    %rdx,%rsi
    59fc:	48 89 c7             	mov    %rax,%rdi
    59ff:	e8 6e 01 00 00       	call   5b72 <_ZNSt27__uninitialized_default_n_1ILb1EE18__uninit_default_nIPimEET_S3_T0_>
    5a04:	c9                   	leave  
    5a05:	c3                   	ret    

0000000000005a06 <_ZNSt12_Destroy_auxILb1EE9__destroyIPiEEvT_S3_>:
    5a06:	f3 0f 1e fa          	endbr64 
    5a0a:	55                   	push   %rbp
    5a0b:	48 89 e5             	mov    %rsp,%rbp
    5a0e:	48 89 7d f8          	mov    %rdi,-0x8(%rbp)
    5a12:	48 89 75 f0          	mov    %rsi,-0x10(%rbp)
    5a16:	90                   	nop
    5a17:	5d                   	pop    %rbp
    5a18:	c3                   	ret    
    5a19:	90                   	nop

0000000000005a1a <_ZN9__gnu_cxx13new_allocatorIiE10deallocateEPim>:
    5a1a:	f3 0f 1e fa          	endbr64 
    5a1e:	55                   	push   %rbp
    5a1f:	48 89 e5             	mov    %rsp,%rbp
    5a22:	48 83 ec 20          	sub    $0x20,%rsp
    5a26:	48 89 7d f8          	mov    %rdi,-0x8(%rbp)
    5a2a:	48 89 75 f0          	mov    %rsi,-0x10(%rbp)
    5a2e:	48 89 55 e8          	mov    %rdx,-0x18(%rbp)
    5a32:	48 8b 45 e8          	mov    -0x18(%rbp),%rax
    5a36:	48 8d 14 85 00 00 00 	lea    0x0(,%rax,4),%rdx
    5a3d:	00 
    5a3e:	48 8b 45 f0          	mov    -0x10(%rbp),%rax
    5a42:	48 89 d6             	mov    %rdx,%rsi
    5a45:	48 89 c7             	mov    %rax,%rdi
    5a48:	e8 c3 c8 ff ff       	call   2310 <_ZdlPvm@plt>
    5a4d:	c9                   	leave  
    5a4e:	c3                   	ret    

0000000000005a4f <_ZNSt16allocator_traitsIN3tbb6detail2d123cache_aligned_allocatorIPNS2_10graph_taskEEEE10deallocateERS6_PS5_m>:
    5a4f:	f3 0f 1e fa          	endbr64 
    5a53:	55                   	push   %rbp
    5a54:	48 89 e5             	mov    %rsp,%rbp
    5a57:	48 83 ec 20          	sub    $0x20,%rsp
    5a5b:	48 89 7d f8          	mov    %rdi,-0x8(%rbp)
    5a5f:	48 89 75 f0          	mov    %rsi,-0x10(%rbp)
    5a63:	48 89 55 e8          	mov    %rdx,-0x18(%rbp)
    5a67:	48 8b 55 e8          	mov    -0x18(%rbp),%rdx
    5a6b:	48 8b 4d f0          	mov    -0x10(%rbp),%rcx
    5a6f:	48 8b 45 f8          	mov    -0x8(%rbp),%rax
    5a73:	48 89 ce             	mov    %rcx,%rsi
    5a76:	48 89 c7             	mov    %rax,%rdi
    5a79:	e8 56 01 00 00       	call   5bd4 <_ZN3tbb6detail2d123cache_aligned_allocatorIPNS1_10graph_taskEE10deallocateEPS4_m>
    5a7e:	90                   	nop
    5a7f:	c9                   	leave  
    5a80:	c3                   	ret    

0000000000005a81 <_ZNSt16allocator_traitsIN3tbb6detail2d123cache_aligned_allocatorIPNS2_10graph_taskEEEE10_S_destroyIS6_S5_EEvRT_PT0_z>:
    5a81:	f3 0f 1e fa          	endbr64 
    5a85:	55                   	push   %rbp
    5a86:	48 89 e5             	mov    %rsp,%rbp
    5a89:	48 81 ec c0 00 00 00 	sub    $0xc0,%rsp
    5a90:	48 89 bd 48 ff ff ff 	mov    %rdi,-0xb8(%rbp)
    5a97:	48 89 b5 40 ff ff ff 	mov    %rsi,-0xc0(%rbp)
    5a9e:	48 89 95 60 ff ff ff 	mov    %rdx,-0xa0(%rbp)
    5aa5:	48 89 8d 68 ff ff ff 	mov    %rcx,-0x98(%rbp)
    5aac:	4c 89 85 70 ff ff ff 	mov    %r8,-0x90(%rbp)
    5ab3:	4c 89 8d 78 ff ff ff 	mov    %r9,-0x88(%rbp)
    5aba:	84 c0                	test   %al,%al
    5abc:	74 20                	je     5ade <_ZNSt16allocator_traitsIN3tbb6detail2d123cache_aligned_allocatorIPNS2_10graph_taskEEEE10_S_destroyIS6_S5_EEvRT_PT0_z+0x5d>
    5abe:	0f 29 45 80          	movaps %xmm0,-0x80(%rbp)
    5ac2:	0f 29 4d 90          	movaps %xmm1,-0x70(%rbp)
    5ac6:	0f 29 55 a0          	movaps %xmm2,-0x60(%rbp)
    5aca:	0f 29 5d b0          	movaps %xmm3,-0x50(%rbp)
    5ace:	0f 29 65 c0          	movaps %xmm4,-0x40(%rbp)
    5ad2:	0f 29 6d d0          	movaps %xmm5,-0x30(%rbp)
    5ad6:	0f 29 75 e0          	movaps %xmm6,-0x20(%rbp)
    5ada:	0f 29 7d f0          	movaps %xmm7,-0x10(%rbp)
    5ade:	48 8b 85 40 ff ff ff 	mov    -0xc0(%rbp),%rax
    5ae5:	48 89 c7             	mov    %rax,%rdi
    5ae8:	e8 0e 01 00 00       	call   5bfb <_ZSt8_DestroyIPN3tbb6detail2d110graph_taskEEvPT_>
    5aed:	90                   	nop
    5aee:	c9                   	leave  
    5aef:	c3                   	ret    

0000000000005af0 <_ZNK3tbb6detail2d113blocked_rangeImE5emptyEv>:
    5af0:	f3 0f 1e fa          	endbr64 
    5af4:	55                   	push   %rbp
    5af5:	48 89 e5             	mov    %rsp,%rbp
    5af8:	48 89 7d f8          	mov    %rdi,-0x8(%rbp)
    5afc:	48 8b 45 f8          	mov    -0x8(%rbp),%rax
    5b00:	48 8b 50 08          	mov    0x8(%rax),%rdx
    5b04:	48 8b 45 f8          	mov    -0x8(%rbp),%rax
    5b08:	48 8b 00             	mov    (%rax),%rax
    5b0b:	48 39 c2             	cmp    %rax,%rdx
    5b0e:	0f 93 c0             	setae  %al
    5b11:	5d                   	pop    %rbp
    5b12:	c3                   	ret    
    5b13:	90                   	nop

0000000000005b14 <_ZNK9__gnu_cxx13new_allocatorIiE8max_sizeEv>:
    5b14:	f3 0f 1e fa          	endbr64 
    5b18:	55                   	push   %rbp
    5b19:	48 89 e5             	mov    %rsp,%rbp
    5b1c:	48 83 ec 10          	sub    $0x10,%rsp
    5b20:	48 89 7d f8          	mov    %rdi,-0x8(%rbp)
    5b24:	48 8b 45 f8          	mov    -0x8(%rbp),%rax
    5b28:	48 89 c7             	mov    %rax,%rdi
    5b2b:	e8 fe 00 00 00       	call   5c2e <_ZNK9__gnu_cxx13new_allocatorIiE11_M_max_sizeEv>
    5b30:	c9                   	leave  
    5b31:	c3                   	ret    

0000000000005b32 <_ZNSt16allocator_traitsISaIiEE8allocateERS0_m>:
    5b32:	f3 0f 1e fa          	endbr64 
    5b36:	55                   	push   %rbp
    5b37:	48 89 e5             	mov    %rsp,%rbp
    5b3a:	48 83 ec 10          	sub    $0x10,%rsp
    5b3e:	48 89 7d f8          	mov    %rdi,-0x8(%rbp)
    5b42:	48 89 75 f0          	mov    %rsi,-0x10(%rbp)
    5b46:	48 8b 4d f0          	mov    -0x10(%rbp),%rcx
    5b4a:	48 8b 45 f8          	mov    -0x8(%rbp),%rax
    5b4e:	ba 00 00 00 00       	mov    $0x0,%edx
    5b53:	48 89 ce             	mov    %rcx,%rsi
    5b56:	48 89 c7             	mov    %rax,%rdi
    5b59:	e8 e8 00 00 00       	call   5c46 <_ZN9__gnu_cxx13new_allocatorIiE8allocateEmPKv>
    5b5e:	c9                   	leave  
    5b5f:	c3                   	ret    

0000000000005b60 <_ZSt11__addressofIiEPT_RS0_>:
    5b60:	f3 0f 1e fa          	endbr64 
    5b64:	55                   	push   %rbp
    5b65:	48 89 e5             	mov    %rsp,%rbp
    5b68:	48 89 7d f8          	mov    %rdi,-0x8(%rbp)
    5b6c:	48 8b 45 f8          	mov    -0x8(%rbp),%rax
    5b70:	5d                   	pop    %rbp
    5b71:	c3                   	ret    

0000000000005b72 <_ZNSt27__uninitialized_default_n_1ILb1EE18__uninit_default_nIPimEET_S3_T0_>:
    5b72:	f3 0f 1e fa          	endbr64 
    5b76:	55                   	push   %rbp
    5b77:	48 89 e5             	mov    %rsp,%rbp
    5b7a:	48 83 ec 20          	sub    $0x20,%rsp
    5b7e:	48 89 7d e8          	mov    %rdi,-0x18(%rbp)
    5b82:	48 89 75 e0          	mov    %rsi,-0x20(%rbp)
    5b86:	48 83 7d e0 00       	cmpq   $0x0,-0x20(%rbp)
    5b8b:	74 40                	je     5bcd <_ZNSt27__uninitialized_default_n_1ILb1EE18__uninit_default_nIPimEET_S3_T0_+0x5b>
    5b8d:	48 8b 45 e8          	mov    -0x18(%rbp),%rax
    5b91:	48 89 c7             	mov    %rax,%rdi
    5b94:	e8 c7 ff ff ff       	call   5b60 <_ZSt11__addressofIiEPT_RS0_>
    5b99:	48 89 45 f8          	mov    %rax,-0x8(%rbp)
    5b9d:	48 8b 45 f8          	mov    -0x8(%rbp),%rax
    5ba1:	48 89 c7             	mov    %rax,%rdi
    5ba4:	e8 02 01 00 00       	call   5cab <_ZSt10_ConstructIiJEEvPT_DpOT0_>
    5ba9:	48 83 45 e8 04       	addq   $0x4,-0x18(%rbp)
    5bae:	48 8b 45 e0          	mov    -0x20(%rbp),%rax
    5bb2:	48 8d 48 ff          	lea    -0x1(%rax),%rcx
    5bb6:	48 8b 55 f8          	mov    -0x8(%rbp),%rdx
    5bba:	48 8b 45 e8          	mov    -0x18(%rbp),%rax
    5bbe:	48 89 ce             	mov    %rcx,%rsi
    5bc1:	48 89 c7             	mov    %rax,%rdi
    5bc4:	e8 0c 01 00 00       	call   5cd5 <_ZSt6fill_nIPimiET_S1_T0_RKT1_>
    5bc9:	48 89 45 e8          	mov    %rax,-0x18(%rbp)
    5bcd:	48 8b 45 e8          	mov    -0x18(%rbp),%rax
    5bd1:	c9                   	leave  
    5bd2:	c3                   	ret    
    5bd3:	90                   	nop

0000000000005bd4 <_ZN3tbb6detail2d123cache_aligned_allocatorIPNS1_10graph_taskEE10deallocateEPS4_m>:
    5bd4:	f3 0f 1e fa          	endbr64 
    5bd8:	55                   	push   %rbp
    5bd9:	48 89 e5             	mov    %rsp,%rbp
    5bdc:	48 83 ec 20          	sub    $0x20,%rsp
    5be0:	48 89 7d f8          	mov    %rdi,-0x8(%rbp)
    5be4:	48 89 75 f0          	mov    %rsi,-0x10(%rbp)
    5be8:	48 89 55 e8          	mov    %rdx,-0x18(%rbp)
    5bec:	48 8b 45 f0          	mov    -0x10(%rbp),%rax
    5bf0:	48 89 c7             	mov    %rax,%rdi
    5bf3:	e8 d8 c7 ff ff       	call   23d0 <_ZN3tbb6detail2r124cache_aligned_deallocateEPv@plt>
    5bf8:	90                   	nop
    5bf9:	c9                   	leave  
    5bfa:	c3                   	ret    

0000000000005bfb <_ZSt8_DestroyIPN3tbb6detail2d110graph_taskEEvPT_>:
    5bfb:	f3 0f 1e fa          	endbr64 
    5bff:	55                   	push   %rbp
    5c00:	48 89 e5             	mov    %rsp,%rbp
    5c03:	48 89 7d f8          	mov    %rdi,-0x8(%rbp)
    5c07:	90                   	nop
    5c08:	5d                   	pop    %rbp
    5c09:	c3                   	ret    

0000000000005c0a <_ZSt7forwardIRKN3tbb6detail2d113blocked_rangeImEEEOT_RNSt16remove_referenceIS7_E4typeE>:
    5c0a:	f3 0f 1e fa          	endbr64 
    5c0e:	55                   	push   %rbp
    5c0f:	48 89 e5             	mov    %rsp,%rbp
    5c12:	48 89 7d f8          	mov    %rdi,-0x8(%rbp)
    5c16:	48 8b 45 f8          	mov    -0x8(%rbp),%rax
    5c1a:	5d                   	pop    %rbp
    5c1b:	c3                   	ret    

0000000000005c1c <_ZSt7forwardIRKN3tbb6detail2d116auto_partitionerEEOT_RNSt16remove_referenceIS6_E4typeE>:
    5c1c:	f3 0f 1e fa          	endbr64 
    5c20:	55                   	push   %rbp
    5c21:	48 89 e5             	mov    %rsp,%rbp
    5c24:	48 89 7d f8          	mov    %rdi,-0x8(%rbp)
    5c28:	48 8b 45 f8          	mov    -0x8(%rbp),%rax
    5c2c:	5d                   	pop    %rbp
    5c2d:	c3                   	ret    

0000000000005c2e <_ZNK9__gnu_cxx13new_allocatorIiE11_M_max_sizeEv>:
    5c2e:	f3 0f 1e fa          	endbr64 
    5c32:	55                   	push   %rbp
    5c33:	48 89 e5             	mov    %rsp,%rbp
    5c36:	48 89 7d f8          	mov    %rdi,-0x8(%rbp)
    5c3a:	48 b8 ff ff ff ff ff 	movabs $0x1fffffffffffffff,%rax
    5c41:	ff ff 1f 
    5c44:	5d                   	pop    %rbp
    5c45:	c3                   	ret    

0000000000005c46 <_ZN9__gnu_cxx13new_allocatorIiE8allocateEmPKv>:
    5c46:	f3 0f 1e fa          	endbr64 
    5c4a:	55                   	push   %rbp
    5c4b:	48 89 e5             	mov    %rsp,%rbp
    5c4e:	48 83 ec 20          	sub    $0x20,%rsp
    5c52:	48 89 7d f8          	mov    %rdi,-0x8(%rbp)
    5c56:	48 89 75 f0          	mov    %rsi,-0x10(%rbp)
    5c5a:	48 89 55 e8          	mov    %rdx,-0x18(%rbp)
    5c5e:	48 8b 45 f8          	mov    -0x8(%rbp),%rax
    5c62:	48 89 c7             	mov    %rax,%rdi
    5c65:	e8 c4 ff ff ff       	call   5c2e <_ZNK9__gnu_cxx13new_allocatorIiE11_M_max_sizeEv>
    5c6a:	48 39 45 f0          	cmp    %rax,-0x10(%rbp)
    5c6e:	0f 97 c0             	seta   %al
    5c71:	0f b6 c0             	movzbl %al,%eax
    5c74:	48 85 c0             	test   %rax,%rax
    5c77:	0f 95 c0             	setne  %al
    5c7a:	84 c0                	test   %al,%al
    5c7c:	74 1a                	je     5c98 <_ZN9__gnu_cxx13new_allocatorIiE8allocateEmPKv+0x52>
    5c7e:	48 b8 ff ff ff ff ff 	movabs $0x3fffffffffffffff,%rax
    5c85:	ff ff 3f 
    5c88:	48 39 45 f0          	cmp    %rax,-0x10(%rbp)
    5c8c:	76 05                	jbe    5c93 <_ZN9__gnu_cxx13new_allocatorIiE8allocateEmPKv+0x4d>
    5c8e:	e8 3d c6 ff ff       	call   22d0 <_ZSt28__throw_bad_array_new_lengthv@plt>
    5c93:	e8 f8 c5 ff ff       	call   2290 <_ZSt17__throw_bad_allocv@plt>
    5c98:	48 8b 45 f0          	mov    -0x10(%rbp),%rax
    5c9c:	48 c1 e0 02          	shl    $0x2,%rax
    5ca0:	48 89 c7             	mov    %rax,%rdi
    5ca3:	e8 18 c6 ff ff       	call   22c0 <_Znwm@plt>
    5ca8:	90                   	nop
    5ca9:	c9                   	leave  
    5caa:	c3                   	ret    

0000000000005cab <_ZSt10_ConstructIiJEEvPT_DpOT0_>:
    5cab:	f3 0f 1e fa          	endbr64 
    5caf:	55                   	push   %rbp
    5cb0:	48 89 e5             	mov    %rsp,%rbp
    5cb3:	48 83 ec 10          	sub    $0x10,%rsp
    5cb7:	48 89 7d f8          	mov    %rdi,-0x8(%rbp)
    5cbb:	48 8b 45 f8          	mov    -0x8(%rbp),%rax
    5cbf:	48 89 c6             	mov    %rax,%rsi
    5cc2:	bf 04 00 00 00       	mov    $0x4,%edi
    5cc7:	e8 33 dc ff ff       	call   38ff <_ZnwmPv>
    5ccc:	c7 00 00 00 00 00    	movl   $0x0,(%rax)
    5cd2:	90                   	nop
    5cd3:	c9                   	leave  
    5cd4:	c3                   	ret    

0000000000005cd5 <_ZSt6fill_nIPimiET_S1_T0_RKT1_>:
    5cd5:	f3 0f 1e fa          	endbr64 
    5cd9:	55                   	push   %rbp
    5cda:	48 89 e5             	mov    %rsp,%rbp
    5cdd:	48 83 ec 20          	sub    $0x20,%rsp
    5ce1:	48 89 7d f8          	mov    %rdi,-0x8(%rbp)
    5ce5:	48 89 75 f0          	mov    %rsi,-0x10(%rbp)
    5ce9:	48 89 55 e8          	mov    %rdx,-0x18(%rbp)
    5ced:	48 8d 45 f8          	lea    -0x8(%rbp),%rax
    5cf1:	48 89 c7             	mov    %rax,%rdi
    5cf4:	e8 24 00 00 00       	call   5d1d <_ZSt19__iterator_categoryIPiENSt15iterator_traitsIT_E17iterator_categoryERKS2_>
    5cf9:	48 8b 45 f0          	mov    -0x10(%rbp),%rax
    5cfd:	48 89 c7             	mov    %rax,%rdi
    5d00:	e8 23 dc ff ff       	call   3928 <_ZSt17__size_to_integerm>
    5d05:	48 89 c1             	mov    %rax,%rcx
    5d08:	48 8b 45 f8          	mov    -0x8(%rbp),%rax
    5d0c:	48 8b 55 e8          	mov    -0x18(%rbp),%rdx
    5d10:	48 89 ce             	mov    %rcx,%rsi
    5d13:	48 89 c7             	mov    %rax,%rdi
    5d16:	e8 10 00 00 00       	call   5d2b <_ZSt10__fill_n_aIPimiET_S1_T0_RKT1_St26random_access_iterator_tag>
    5d1b:	c9                   	leave  
    5d1c:	c3                   	ret    

0000000000005d1d <_ZSt19__iterator_categoryIPiENSt15iterator_traitsIT_E17iterator_categoryERKS2_>:
    5d1d:	f3 0f 1e fa          	endbr64 
    5d21:	55                   	push   %rbp
    5d22:	48 89 e5             	mov    %rsp,%rbp
    5d25:	48 89 7d f8          	mov    %rdi,-0x8(%rbp)
    5d29:	5d                   	pop    %rbp
    5d2a:	c3                   	ret    

0000000000005d2b <_ZSt10__fill_n_aIPimiET_S1_T0_RKT1_St26random_access_iterator_tag>:
    5d2b:	f3 0f 1e fa          	endbr64 
    5d2f:	55                   	push   %rbp
    5d30:	48 89 e5             	mov    %rsp,%rbp
    5d33:	48 83 ec 20          	sub    $0x20,%rsp
    5d37:	48 89 7d f8          	mov    %rdi,-0x8(%rbp)
    5d3b:	48 89 75 f0          	mov    %rsi,-0x10(%rbp)
    5d3f:	48 89 55 e8          	mov    %rdx,-0x18(%rbp)
    5d43:	48 83 7d f0 00       	cmpq   $0x0,-0x10(%rbp)
    5d48:	75 06                	jne    5d50 <_ZSt10__fill_n_aIPimiET_S1_T0_RKT1_St26random_access_iterator_tag+0x25>
    5d4a:	48 8b 45 f8          	mov    -0x8(%rbp),%rax
    5d4e:	eb 3a                	jmp    5d8a <_ZSt10__fill_n_aIPimiET_S1_T0_RKT1_St26random_access_iterator_tag+0x5f>
    5d50:	48 8b 45 f0          	mov    -0x10(%rbp),%rax
    5d54:	48 8d 14 85 00 00 00 	lea    0x0(,%rax,4),%rdx
    5d5b:	00 
    5d5c:	48 8b 45 f8          	mov    -0x8(%rbp),%rax
    5d60:	48 8d 0c 02          	lea    (%rdx,%rax,1),%rcx
    5d64:	48 8b 55 e8          	mov    -0x18(%rbp),%rdx
    5d68:	48 8b 45 f8          	mov    -0x8(%rbp),%rax
    5d6c:	48 89 ce             	mov    %rcx,%rsi
    5d6f:	48 89 c7             	mov    %rax,%rdi
    5d72:	e8 15 00 00 00       	call   5d8c <_ZSt8__fill_aIPiiEvT_S1_RKT0_>
    5d77:	48 8b 45 f0          	mov    -0x10(%rbp),%rax
    5d7b:	48 8d 14 85 00 00 00 	lea    0x0(,%rax,4),%rdx
    5d82:	00 
    5d83:	48 8b 45 f8          	mov    -0x8(%rbp),%rax
    5d87:	48 01 d0             	add    %rdx,%rax
    5d8a:	c9                   	leave  
    5d8b:	c3                   	ret    

0000000000005d8c <_ZSt8__fill_aIPiiEvT_S1_RKT0_>:
    5d8c:	f3 0f 1e fa          	endbr64 
    5d90:	55                   	push   %rbp
    5d91:	48 89 e5             	mov    %rsp,%rbp
    5d94:	48 83 ec 20          	sub    $0x20,%rsp
    5d98:	48 89 7d f8          	mov    %rdi,-0x8(%rbp)
    5d9c:	48 89 75 f0          	mov    %rsi,-0x10(%rbp)
    5da0:	48 89 55 e8          	mov    %rdx,-0x18(%rbp)
    5da4:	48 8b 55 e8          	mov    -0x18(%rbp),%rdx
    5da8:	48 8b 4d f0          	mov    -0x10(%rbp),%rcx
    5dac:	48 8b 45 f8          	mov    -0x8(%rbp),%rax
    5db0:	48 89 ce             	mov    %rcx,%rsi
    5db3:	48 89 c7             	mov    %rax,%rdi
    5db6:	e8 03 00 00 00       	call   5dbe <_ZSt9__fill_a1IPiiEN9__gnu_cxx11__enable_ifIXsrSt11__is_scalarIT0_E7__valueEvE6__typeET_S8_RKS4_>
    5dbb:	90                   	nop
    5dbc:	c9                   	leave  
    5dbd:	c3                   	ret    

0000000000005dbe <_ZSt9__fill_a1IPiiEN9__gnu_cxx11__enable_ifIXsrSt11__is_scalarIT0_E7__valueEvE6__typeET_S8_RKS4_>:
    5dbe:	f3 0f 1e fa          	endbr64 
    5dc2:	55                   	push   %rbp
    5dc3:	48 89 e5             	mov    %rsp,%rbp
    5dc6:	48 89 7d e8          	mov    %rdi,-0x18(%rbp)
    5dca:	48 89 75 e0          	mov    %rsi,-0x20(%rbp)
    5dce:	48 89 55 d8          	mov    %rdx,-0x28(%rbp)
    5dd2:	48 8b 45 d8          	mov    -0x28(%rbp),%rax
    5dd6:	8b 00                	mov    (%rax),%eax
    5dd8:	89 45 fc             	mov    %eax,-0x4(%rbp)
    5ddb:	eb 0e                	jmp    5deb <_ZSt9__fill_a1IPiiEN9__gnu_cxx11__enable_ifIXsrSt11__is_scalarIT0_E7__valueEvE6__typeET_S8_RKS4_+0x2d>
    5ddd:	48 8b 45 e8          	mov    -0x18(%rbp),%rax
    5de1:	8b 55 fc             	mov    -0x4(%rbp),%edx
    5de4:	89 10                	mov    %edx,(%rax)
    5de6:	48 83 45 e8 04       	addq   $0x4,-0x18(%rbp)
    5deb:	48 8b 45 e8          	mov    -0x18(%rbp),%rax
    5def:	48 3b 45 e0          	cmp    -0x20(%rbp),%rax
    5df3:	75 e8                	jne    5ddd <_ZSt9__fill_a1IPiiEN9__gnu_cxx11__enable_ifIXsrSt11__is_scalarIT0_E7__valueEvE6__typeET_S8_RKS4_+0x1f>
    5df5:	90                   	nop
    5df6:	90                   	nop
    5df7:	5d                   	pop    %rbp
    5df8:	c3                   	ret    
    5df9:	90                   	nop

0000000000005dfa <_ZNK3tbb6detail2d119task_arena_functionIZZNS1_5graph12wait_for_allEvENKUlvE_clEvEUlvE_vEclEv>:
    5dfa:	f3 0f 1e fa          	endbr64 
    5dfe:	55                   	push   %rbp
    5dff:	48 89 e5             	mov    %rsp,%rbp
    5e02:	48 83 ec 10          	sub    $0x10,%rsp
    5e06:	48 89 7d f8          	mov    %rdi,-0x8(%rbp)
    5e0a:	48 8b 45 f8          	mov    -0x8(%rbp),%rax
    5e0e:	48 8b 40 08          	mov    0x8(%rax),%rax
    5e12:	48 89 c7             	mov    %rax,%rdi
    5e15:	e8 24 e7 ff ff       	call   453e <_ZZZN3tbb6detail2d15graph12wait_for_allEvENKUlvE_clEvENKUlvE_clEv>
    5e1a:	b8 01 00 00 00       	mov    $0x1,%eax
    5e1f:	c9                   	leave  
    5e20:	c3                   	ret    
    5e21:	90                   	nop

0000000000005e22 <_ZN3tbb6detail2d119partition_type_baseINS1_19auto_partition_typeEE13note_affinityEt>:
    5e22:	f3 0f 1e fa          	endbr64 
    5e26:	55                   	push   %rbp
    5e27:	48 89 e5             	mov    %rsp,%rbp
    5e2a:	48 89 7d f8          	mov    %rdi,-0x8(%rbp)
    5e2e:	89 f0                	mov    %esi,%eax
    5e30:	66 89 45 f4          	mov    %ax,-0xc(%rbp)
    5e34:	90                   	nop
    5e35:	5d                   	pop    %rbp
    5e36:	c3                   	ret    
    5e37:	90                   	nop

0000000000005e38 <_ZN3tbb6detail2d119partition_type_baseINS1_19auto_partition_typeEE4selfEv>:
    5e38:	f3 0f 1e fa          	endbr64 
    5e3c:	55                   	push   %rbp
    5e3d:	48 89 e5             	mov    %rsp,%rbp
    5e40:	48 89 7d f8          	mov    %rdi,-0x8(%rbp)
    5e44:	48 8b 45 f8          	mov    -0x8(%rbp),%rax
    5e48:	5d                   	pop    %rbp
    5e49:	c3                   	ret    

0000000000005e4a <_ZNKSt13__atomic_baseIiEcviEv>:
    5e4a:	f3 0f 1e fa          	endbr64 
    5e4e:	55                   	push   %rbp
    5e4f:	48 89 e5             	mov    %rsp,%rbp
    5e52:	48 83 ec 20          	sub    $0x20,%rsp
    5e56:	48 89 7d e8          	mov    %rdi,-0x18(%rbp)
    5e5a:	48 8b 45 e8          	mov    -0x18(%rbp),%rax
    5e5e:	48 89 45 f8          	mov    %rax,-0x8(%rbp)
    5e62:	c7 45 f0 05 00 00 00 	movl   $0x5,-0x10(%rbp)
    5e69:	8b 45 f0             	mov    -0x10(%rbp),%eax
    5e6c:	be ff ff 00 00       	mov    $0xffff,%esi
    5e71:	89 c7                	mov    %eax,%edi
    5e73:	e8 e5 da ff ff       	call   395d <_ZStanSt12memory_orderSt23__memory_order_modifier>
    5e78:	89 45 f4             	mov    %eax,-0xc(%rbp)
    5e7b:	48 8b 45 f8          	mov    -0x8(%rbp),%rax
    5e7f:	8b 00                	mov    (%rax),%eax
    5e81:	c9                   	leave  
    5e82:	c3                   	ret    
    5e83:	90                   	nop

0000000000005e84 <_ZNK3tbb6detail2d113blocked_rangeImE12is_divisibleEv>:
    5e84:	f3 0f 1e fa          	endbr64 
    5e88:	55                   	push   %rbp
    5e89:	48 89 e5             	mov    %rsp,%rbp
    5e8c:	53                   	push   %rbx
    5e8d:	48 83 ec 18          	sub    $0x18,%rsp
    5e91:	48 89 7d e8          	mov    %rdi,-0x18(%rbp)
    5e95:	48 8b 45 e8          	mov    -0x18(%rbp),%rax
    5e99:	48 8b 58 10          	mov    0x10(%rax),%rbx
    5e9d:	48 8b 45 e8          	mov    -0x18(%rbp),%rax
    5ea1:	48 89 c7             	mov    %rax,%rdi
    5ea4:	e8 e3 00 00 00       	call   5f8c <_ZNK3tbb6detail2d113blocked_rangeImE4sizeEv>
    5ea9:	48 39 c3             	cmp    %rax,%rbx
    5eac:	0f 92 c0             	setb   %al
    5eaf:	48 8b 5d f8          	mov    -0x8(%rbp),%rbx
    5eb3:	c9                   	leave  
    5eb4:	c3                   	ret    
    5eb5:	90                   	nop

0000000000005eb6 <_ZN3tbb6detail2d119partition_type_baseINS1_19auto_partition_typeEE9get_splitINS1_13blocked_rangeImEEEENS0_2d05splitEv>:
    5eb6:	f3 0f 1e fa          	endbr64 
    5eba:	55                   	push   %rbp
    5ebb:	48 89 e5             	mov    %rsp,%rbp
    5ebe:	48 89 7d f8          	mov    %rdi,-0x8(%rbp)
    5ec2:	90                   	nop
    5ec3:	5d                   	pop    %rbp
    5ec4:	c3                   	ret    

0000000000005ec5 <_ZN3tbb6detail2d19fold_treeINS1_9tree_nodeEEEvPNS1_4nodeERKNS1_14execution_dataE>:
    5ec5:	f3 0f 1e fa          	endbr64 
    5ec9:	55                   	push   %rbp
    5eca:	48 89 e5             	mov    %rsp,%rbp
    5ecd:	48 83 ec 20          	sub    $0x20,%rsp
    5ed1:	48 89 7d e8          	mov    %rdi,-0x18(%rbp)
    5ed5:	48 89 75 e0          	mov    %rsi,-0x20(%rbp)
    5ed9:	48 8b 45 e8          	mov    -0x18(%rbp),%rax
    5edd:	48 89 c6             	mov    %rax,%rsi
    5ee0:	bf 03 00 00 00       	mov    $0x3,%edi
    5ee5:	e8 34 dd ff ff       	call   3c1e <_ZN3tbb6detail2d120call_itt_task_notifyENS1_11notify_typeEPv>
    5eea:	48 8b 45 e8          	mov    -0x18(%rbp),%rax
    5eee:	48 83 c0 08          	add    $0x8,%rax
    5ef2:	48 89 c7             	mov    %rax,%rdi
    5ef5:	e8 78 05 00 00       	call   6472 <_ZNSt13__atomic_baseIiEmmEv>
    5efa:	85 c0                	test   %eax,%eax
    5efc:	0f 9f c0             	setg   %al
    5eff:	84 c0                	test   %al,%al
    5f01:	0f 85 81 00 00 00    	jne    5f88 <_ZN3tbb6detail2d19fold_treeINS1_9tree_nodeEEEvPNS1_4nodeERKNS1_14execution_dataE+0xc3>
    5f07:	48 8b 45 e8          	mov    -0x18(%rbp),%rax
    5f0b:	48 8b 00             	mov    (%rax),%rax
    5f0e:	48 89 45 f0          	mov    %rax,-0x10(%rbp)
    5f12:	48 83 7d f0 00       	cmpq   $0x0,-0x10(%rbp)
    5f17:	74 57                	je     5f70 <_ZN3tbb6detail2d19fold_treeINS1_9tree_nodeEEEvPNS1_4nodeERKNS1_14execution_dataE+0xab>
    5f19:	48 8b 45 e8          	mov    -0x18(%rbp),%rax
    5f1d:	48 89 c6             	mov    %rax,%rsi
    5f20:	bf 02 00 00 00       	mov    $0x2,%edi
    5f25:	e8 f4 dc ff ff       	call   3c1e <_ZN3tbb6detail2d120call_itt_task_notifyENS1_11notify_typeEPv>
    5f2a:	48 8b 45 e8          	mov    -0x18(%rbp),%rax
    5f2e:	48 89 45 f8          	mov    %rax,-0x8(%rbp)
    5f32:	48 8b 45 e0          	mov    -0x20(%rbp),%rax
    5f36:	48 8b 10             	mov    (%rax),%rdx
    5f39:	48 8b 45 f8          	mov    -0x8(%rbp),%rax
    5f3d:	48 89 d6             	mov    %rdx,%rsi
    5f40:	48 89 c7             	mov    %rax,%rdi
    5f43:	e8 6e e9 ff ff       	call   48b6 <_ZN3tbb6detail2d19tree_node4joinEPNS1_18task_group_contextE>
    5f48:	48 8b 45 f8          	mov    -0x8(%rbp),%rax
    5f4c:	48 8d 48 10          	lea    0x10(%rax),%rcx
    5f50:	48 8b 55 e0          	mov    -0x20(%rbp),%rdx
    5f54:	48 8b 45 f8          	mov    -0x8(%rbp),%rax
    5f58:	48 89 c6             	mov    %rax,%rsi
    5f5b:	48 89 cf             	mov    %rcx,%rdi
    5f5e:	e8 33 05 00 00       	call   6496 <_ZN3tbb6detail2d122small_object_allocator13delete_objectINS1_9tree_nodeEEEvPT_RKNS1_14execution_dataE>
    5f63:	48 8b 45 f0          	mov    -0x10(%rbp),%rax
    5f67:	48 89 45 e8          	mov    %rax,-0x18(%rbp)
    5f6b:	e9 69 ff ff ff       	jmp    5ed9 <_ZN3tbb6detail2d19fold_treeINS1_9tree_nodeEEEvPNS1_4nodeERKNS1_14execution_dataE+0x14>
    5f70:	90                   	nop
    5f71:	48 8b 45 e8          	mov    -0x18(%rbp),%rax
    5f75:	48 83 c0 10          	add    $0x10,%rax
    5f79:	be 01 00 00 00       	mov    $0x1,%esi
    5f7e:	48 89 c7             	mov    %rax,%rdi
    5f81:	e8 9e dd ff ff       	call   3d24 <_ZN3tbb6detail2d112wait_context7releaseEj>
    5f86:	eb 01                	jmp    5f89 <_ZN3tbb6detail2d19fold_treeINS1_9tree_nodeEEEvPNS1_4nodeERKNS1_14execution_dataE+0xc4>
    5f88:	90                   	nop
    5f89:	c9                   	leave  
    5f8a:	c3                   	ret    
    5f8b:	90                   	nop

0000000000005f8c <_ZNK3tbb6detail2d113blocked_rangeImE4sizeEv>:
    5f8c:	f3 0f 1e fa          	endbr64 
    5f90:	55                   	push   %rbp
    5f91:	48 89 e5             	mov    %rsp,%rbp
    5f94:	48 89 7d f8          	mov    %rdi,-0x8(%rbp)
    5f98:	48 8b 45 f8          	mov    -0x8(%rbp),%rax
    5f9c:	48 8b 10             	mov    (%rax),%rdx
    5f9f:	48 8b 45 f8          	mov    -0x8(%rbp),%rax
    5fa3:	48 8b 48 08          	mov    0x8(%rax),%rcx
    5fa7:	48 89 d0             	mov    %rdx,%rax
    5faa:	48 29 c8             	sub    %rcx,%rax
    5fad:	5d                   	pop    %rbp
    5fae:	c3                   	ret    
    5faf:	90                   	nop

0000000000005fb0 <_ZN3tbb6detail2d122dynamic_grainsize_modeINS1_13adaptive_modeINS1_19auto_partition_typeEEEE9max_depthEv>:
    5fb0:	f3 0f 1e fa          	endbr64 
    5fb4:	55                   	push   %rbp
    5fb5:	48 89 e5             	mov    %rsp,%rbp
    5fb8:	48 89 7d f8          	mov    %rdi,-0x8(%rbp)
    5fbc:	48 8b 45 f8          	mov    -0x8(%rbp),%rax
    5fc0:	0f b6 40 0c          	movzbl 0xc(%rax),%eax
    5fc4:	5d                   	pop    %rbp
    5fc5:	c3                   	ret    

0000000000005fc6 <_ZN3tbb6detail2d112range_vectorINS1_13blocked_rangeImEELh8EEC1ERKS4_>:
    5fc6:	f3 0f 1e fa          	endbr64 
    5fca:	55                   	push   %rbp
    5fcb:	48 89 e5             	mov    %rsp,%rbp
    5fce:	48 83 ec 10          	sub    $0x10,%rsp
    5fd2:	48 89 7d f8          	mov    %rdi,-0x8(%rbp)
    5fd6:	48 89 75 f0          	mov    %rsi,-0x10(%rbp)
    5fda:	48 8b 45 f8          	mov    -0x8(%rbp),%rax
    5fde:	c6 00 00             	movb   $0x0,(%rax)
    5fe1:	48 8b 45 f8          	mov    -0x8(%rbp),%rax
    5fe5:	c6 40 01 00          	movb   $0x0,0x1(%rax)
    5fe9:	48 8b 45 f8          	mov    -0x8(%rbp),%rax
    5fed:	c6 40 02 01          	movb   $0x1,0x2(%rax)
    5ff1:	48 8b 45 f8          	mov    -0x8(%rbp),%rax
    5ff5:	c6 40 03 00          	movb   $0x0,0x3(%rax)
    5ff9:	48 8b 45 f8          	mov    -0x8(%rbp),%rax
    5ffd:	48 83 c0 10          	add    $0x10,%rax
    6001:	48 89 c7             	mov    %rax,%rdi
    6004:	e8 a7 05 00 00       	call   65b0 <_ZNK3tbb6detail2d013aligned_spaceINS0_2d113blocked_rangeImEELm8EE5beginEv>
    6009:	48 89 c6             	mov    %rax,%rsi
    600c:	bf 18 00 00 00       	mov    $0x18,%edi
    6011:	e8 e9 d8 ff ff       	call   38ff <_ZnwmPv>
    6016:	48 89 c1             	mov    %rax,%rcx
    6019:	48 8b 75 f0          	mov    -0x10(%rbp),%rsi
    601d:	48 8b 06             	mov    (%rsi),%rax
    6020:	48 8b 56 08          	mov    0x8(%rsi),%rdx
    6024:	48 89 01             	mov    %rax,(%rcx)
    6027:	48 89 51 08          	mov    %rdx,0x8(%rcx)
    602b:	48 8b 46 10          	mov    0x10(%rsi),%rax
    602f:	48 89 41 10          	mov    %rax,0x10(%rcx)
    6033:	90                   	nop
    6034:	c9                   	leave  
    6035:	c3                   	ret    

0000000000006036 <_ZN3tbb6detail2d112range_vectorINS1_13blocked_rangeImEELh8EED1Ev>:
    6036:	f3 0f 1e fa          	endbr64 
    603a:	55                   	push   %rbp
    603b:	48 89 e5             	mov    %rsp,%rbp
    603e:	48 83 ec 10          	sub    $0x10,%rsp
    6042:	48 89 7d f8          	mov    %rdi,-0x8(%rbp)
    6046:	eb 0c                	jmp    6054 <_ZN3tbb6detail2d112range_vectorINS1_13blocked_rangeImEELh8EED1Ev+0x1e>
    6048:	48 8b 45 f8          	mov    -0x8(%rbp),%rax
    604c:	48 89 c7             	mov    %rax,%rdi
    604f:	e8 96 03 00 00       	call   63ea <_ZN3tbb6detail2d112range_vectorINS1_13blocked_rangeImEELh8EE8pop_backEv>
    6054:	48 8b 45 f8          	mov    -0x8(%rbp),%rax
    6058:	48 89 c7             	mov    %rax,%rdi
    605b:	e8 f6 03 00 00       	call   6456 <_ZNK3tbb6detail2d112range_vectorINS1_13blocked_rangeImEELh8EE5emptyEv>
    6060:	83 f0 01             	xor    $0x1,%eax
    6063:	84 c0                	test   %al,%al
    6065:	75 e1                	jne    6048 <_ZN3tbb6detail2d112range_vectorINS1_13blocked_rangeImEELh8EED1Ev+0x12>
    6067:	90                   	nop
    6068:	90                   	nop
    6069:	c9                   	leave  
    606a:	c3                   	ret    
    606b:	90                   	nop

000000000000606c <_ZN3tbb6detail2d112range_vectorINS1_13blocked_rangeImEELh8EE13split_to_fillEh>:
    606c:	f3 0f 1e fa          	endbr64 
    6070:	55                   	push   %rbp
    6071:	48 89 e5             	mov    %rsp,%rbp
    6074:	41 55                	push   %r13
    6076:	41 54                	push   %r12
    6078:	53                   	push   %rbx
    6079:	48 83 ec 28          	sub    $0x28,%rsp
    607d:	48 89 7d c8          	mov    %rdi,-0x38(%rbp)
    6081:	89 f0                	mov    %esi,%eax
    6083:	88 45 c4             	mov    %al,-0x3c(%rbp)
    6086:	e9 88 01 00 00       	jmp    6213 <_ZN3tbb6detail2d112range_vectorINS1_13blocked_rangeImEELh8EE13split_to_fillEh+0x1a7>
    608b:	48 8b 45 c8          	mov    -0x38(%rbp),%rax
    608f:	0f b6 00             	movzbl (%rax),%eax
    6092:	88 45 df             	mov    %al,-0x21(%rbp)
    6095:	48 8b 45 c8          	mov    -0x38(%rbp),%rax
    6099:	0f b6 00             	movzbl (%rax),%eax
    609c:	0f b6 c0             	movzbl %al,%eax
    609f:	83 c0 01             	add    $0x1,%eax
    60a2:	99                   	cltd   
    60a3:	c1 ea 1d             	shr    $0x1d,%edx
    60a6:	01 d0                	add    %edx,%eax
    60a8:	83 e0 07             	and    $0x7,%eax
    60ab:	29 d0                	sub    %edx,%eax
    60ad:	89 c2                	mov    %eax,%edx
    60af:	48 8b 45 c8          	mov    -0x38(%rbp),%rax
    60b3:	88 10                	mov    %dl,(%rax)
    60b5:	48 8b 45 c8          	mov    -0x38(%rbp),%rax
    60b9:	48 83 c0 10          	add    $0x10,%rax
    60bd:	48 89 c7             	mov    %rax,%rdi
    60c0:	e8 eb 04 00 00       	call   65b0 <_ZNK3tbb6detail2d013aligned_spaceINS0_2d113blocked_rangeImEELm8EE5beginEv>
    60c5:	48 89 c1             	mov    %rax,%rcx
    60c8:	0f b6 55 df          	movzbl -0x21(%rbp),%edx
    60cc:	48 89 d0             	mov    %rdx,%rax
    60cf:	48 01 c0             	add    %rax,%rax
    60d2:	48 01 d0             	add    %rdx,%rax
    60d5:	48 c1 e0 03          	shl    $0x3,%rax
    60d9:	48 8d 1c 01          	lea    (%rcx,%rax,1),%rbx
    60dd:	48 8b 45 c8          	mov    -0x38(%rbp),%rax
    60e1:	48 83 c0 10          	add    $0x10,%rax
    60e5:	48 89 c7             	mov    %rax,%rdi
    60e8:	e8 c3 04 00 00       	call   65b0 <_ZNK3tbb6detail2d013aligned_spaceINS0_2d113blocked_rangeImEELm8EE5beginEv>
    60ed:	48 89 c1             	mov    %rax,%rcx
    60f0:	48 8b 45 c8          	mov    -0x38(%rbp),%rax
    60f4:	0f b6 00             	movzbl (%rax),%eax
    60f7:	0f b6 d0             	movzbl %al,%edx
    60fa:	48 89 d0             	mov    %rdx,%rax
    60fd:	48 01 c0             	add    %rax,%rax
    6100:	48 01 d0             	add    %rdx,%rax
    6103:	48 c1 e0 03          	shl    $0x3,%rax
    6107:	48 01 c8             	add    %rcx,%rax
    610a:	48 89 c6             	mov    %rax,%rsi
    610d:	bf 18 00 00 00       	mov    $0x18,%edi
    6112:	e8 e8 d7 ff ff       	call   38ff <_ZnwmPv>
    6117:	48 89 c1             	mov    %rax,%rcx
    611a:	48 8b 03             	mov    (%rbx),%rax
    611d:	48 8b 53 08          	mov    0x8(%rbx),%rdx
    6121:	48 89 01             	mov    %rax,(%rcx)
    6124:	48 89 51 08          	mov    %rdx,0x8(%rcx)
    6128:	48 8b 43 10          	mov    0x10(%rbx),%rax
    612c:	48 89 41 10          	mov    %rax,0x10(%rcx)
    6130:	48 8b 45 c8          	mov    -0x38(%rbp),%rax
    6134:	48 83 c0 10          	add    $0x10,%rax
    6138:	48 89 c7             	mov    %rax,%rdi
    613b:	e8 70 04 00 00       	call   65b0 <_ZNK3tbb6detail2d013aligned_spaceINS0_2d113blocked_rangeImEELm8EE5beginEv>
    6140:	0f b6 55 df          	movzbl -0x21(%rbp),%edx
    6144:	48 89 d0             	mov    %rdx,%rax
    6147:	48 01 c0             	add    %rax,%rax
    614a:	48 01 d0             	add    %rdx,%rax
    614d:	48 c1 e0 03          	shl    $0x3,%rax
    6151:	48 8b 45 c8          	mov    -0x38(%rbp),%rax
    6155:	48 83 c0 10          	add    $0x10,%rax
    6159:	48 89 c7             	mov    %rax,%rdi
    615c:	e8 4f 04 00 00       	call   65b0 <_ZNK3tbb6detail2d013aligned_spaceINS0_2d113blocked_rangeImEELm8EE5beginEv>
    6161:	48 89 c1             	mov    %rax,%rcx
    6164:	48 8b 45 c8          	mov    -0x38(%rbp),%rax
    6168:	0f b6 00             	movzbl (%rax),%eax
    616b:	0f b6 d0             	movzbl %al,%edx
    616e:	48 89 d0             	mov    %rdx,%rax
    6171:	48 01 c0             	add    %rax,%rax
    6174:	48 01 d0             	add    %rdx,%rax
    6177:	48 c1 e0 03          	shl    $0x3,%rax
    617b:	4c 8d 2c 01          	lea    (%rcx,%rax,1),%r13
    617f:	48 8b 45 c8          	mov    -0x38(%rbp),%rax
    6183:	48 83 c0 10          	add    $0x10,%rax
    6187:	48 89 c7             	mov    %rax,%rdi
    618a:	e8 21 04 00 00       	call   65b0 <_ZNK3tbb6detail2d013aligned_spaceINS0_2d113blocked_rangeImEELm8EE5beginEv>
    618f:	48 89 c1             	mov    %rax,%rcx
    6192:	0f b6 55 df          	movzbl -0x21(%rbp),%edx
    6196:	48 89 d0             	mov    %rdx,%rax
    6199:	48 01 c0             	add    %rax,%rax
    619c:	48 01 d0             	add    %rdx,%rax
    619f:	48 c1 e0 03          	shl    $0x3,%rax
    61a3:	48 8d 1c 01          	lea    (%rcx,%rax,1),%rbx
    61a7:	48 89 de             	mov    %rbx,%rsi
    61aa:	bf 18 00 00 00       	mov    $0x18,%edi
    61af:	e8 4b d7 ff ff       	call   38ff <_ZnwmPv>
    61b4:	49 89 c4             	mov    %rax,%r12
    61b7:	4c 89 ee             	mov    %r13,%rsi
    61ba:	4c 89 e7             	mov    %r12,%rdi
    61bd:	e8 0c 04 00 00       	call   65ce <_ZN3tbb6detail2d113blocked_rangeImEC1ERS3_NS0_2d05splitE>
    61c2:	0f b6 45 df          	movzbl -0x21(%rbp),%eax
    61c6:	48 8b 4d c8          	mov    -0x38(%rbp),%rcx
    61ca:	48 63 d0             	movslq %eax,%rdx
    61cd:	0f b6 54 11 03       	movzbl 0x3(%rcx,%rdx,1),%edx
    61d2:	8d 72 01             	lea    0x1(%rdx),%esi
    61d5:	48 8b 4d c8          	mov    -0x38(%rbp),%rcx
    61d9:	48 63 d0             	movslq %eax,%rdx
    61dc:	40 88 74 11 03       	mov    %sil,0x3(%rcx,%rdx,1)
    61e1:	48 8b 55 c8          	mov    -0x38(%rbp),%rdx
    61e5:	0f b6 12             	movzbl (%rdx),%edx
    61e8:	0f b6 f2             	movzbl %dl,%esi
    61eb:	48 8b 55 c8          	mov    -0x38(%rbp),%rdx
    61ef:	48 98                	cltq   
    61f1:	0f b6 4c 02 03       	movzbl 0x3(%rdx,%rax,1),%ecx
    61f6:	48 8b 55 c8          	mov    -0x38(%rbp),%rdx
    61fa:	48 63 c6             	movslq %esi,%rax
    61fd:	88 4c 02 03          	mov    %cl,0x3(%rdx,%rax,1)
    6201:	48 8b 45 c8          	mov    -0x38(%rbp),%rax
    6205:	0f b6 40 02          	movzbl 0x2(%rax),%eax
    6209:	8d 50 01             	lea    0x1(%rax),%edx
    620c:	48 8b 45 c8          	mov    -0x38(%rbp),%rax
    6210:	88 50 02             	mov    %dl,0x2(%rax)
    6213:	48 8b 45 c8          	mov    -0x38(%rbp),%rax
    6217:	0f b6 40 02          	movzbl 0x2(%rax),%eax
    621b:	3c 07                	cmp    $0x7,%al
    621d:	77 1d                	ja     623c <_ZN3tbb6detail2d112range_vectorINS1_13blocked_rangeImEELh8EE13split_to_fillEh+0x1d0>
    621f:	0f b6 55 c4          	movzbl -0x3c(%rbp),%edx
    6223:	48 8b 45 c8          	mov    -0x38(%rbp),%rax
    6227:	89 d6                	mov    %edx,%esi
    6229:	48 89 c7             	mov    %rax,%rdi
    622c:	e8 2d 01 00 00       	call   635e <_ZN3tbb6detail2d112range_vectorINS1_13blocked_rangeImEELh8EE12is_divisibleEh>
    6231:	84 c0                	test   %al,%al
    6233:	74 07                	je     623c <_ZN3tbb6detail2d112range_vectorINS1_13blocked_rangeImEELh8EE13split_to_fillEh+0x1d0>
    6235:	b8 01 00 00 00       	mov    $0x1,%eax
    623a:	eb 05                	jmp    6241 <_ZN3tbb6detail2d112range_vectorINS1_13blocked_rangeImEELh8EE13split_to_fillEh+0x1d5>
    623c:	b8 00 00 00 00       	mov    $0x0,%eax
    6241:	84 c0                	test   %al,%al
    6243:	0f 85 42 fe ff ff    	jne    608b <_ZN3tbb6detail2d112range_vectorINS1_13blocked_rangeImEELh8EE13split_to_fillEh+0x1f>
    6249:	eb 1d                	jmp    6268 <_ZN3tbb6detail2d112range_vectorINS1_13blocked_rangeImEELh8EE13split_to_fillEh+0x1fc>
    624b:	f3 0f 1e fa          	endbr64 
    624f:	49 89 c5             	mov    %rax,%r13
    6252:	48 89 de             	mov    %rbx,%rsi
    6255:	4c 89 e7             	mov    %r12,%rdi
    6258:	e8 b8 d6 ff ff       	call   3915 <_ZdlPvS_>
    625d:	4c 89 e8             	mov    %r13,%rax
    6260:	48 89 c7             	mov    %rax,%rdi
    6263:	e8 88 c1 ff ff       	call   23f0 <_Unwind_Resume@plt>
    6268:	48 83 c4 28          	add    $0x28,%rsp
    626c:	5b                   	pop    %rbx
    626d:	41 5c                	pop    %r12
    626f:	41 5d                	pop    %r13
    6271:	5d                   	pop    %rbp
    6272:	c3                   	ret    
    6273:	90                   	nop

0000000000006274 <_ZNK3tbb6detail2d112range_vectorINS1_13blocked_rangeImEELh8EE4sizeEv>:
    6274:	f3 0f 1e fa          	endbr64 
    6278:	55                   	push   %rbp
    6279:	48 89 e5             	mov    %rsp,%rbp
    627c:	48 89 7d f8          	mov    %rdi,-0x8(%rbp)
    6280:	48 8b 45 f8          	mov    -0x8(%rbp),%rax
    6284:	0f b6 40 02          	movzbl 0x2(%rax),%eax
    6288:	5d                   	pop    %rbp
    6289:	c3                   	ret    

000000000000628a <_ZN3tbb6detail2d112range_vectorINS1_13blocked_rangeImEELh8EE5frontEv>:
    628a:	f3 0f 1e fa          	endbr64 
    628e:	55                   	push   %rbp
    628f:	48 89 e5             	mov    %rsp,%rbp
    6292:	48 83 ec 10          	sub    $0x10,%rsp
    6296:	48 89 7d f8          	mov    %rdi,-0x8(%rbp)
    629a:	48 8b 45 f8          	mov    -0x8(%rbp),%rax
    629e:	48 83 c0 10          	add    $0x10,%rax
    62a2:	48 89 c7             	mov    %rax,%rdi
    62a5:	e8 06 03 00 00       	call   65b0 <_ZNK3tbb6detail2d013aligned_spaceINS0_2d113blocked_rangeImEELm8EE5beginEv>
    62aa:	48 89 c1             	mov    %rax,%rcx
    62ad:	48 8b 45 f8          	mov    -0x8(%rbp),%rax
    62b1:	0f b6 40 01          	movzbl 0x1(%rax),%eax
    62b5:	0f b6 d0             	movzbl %al,%edx
    62b8:	48 89 d0             	mov    %rdx,%rax
    62bb:	48 01 c0             	add    %rax,%rax
    62be:	48 01 d0             	add    %rdx,%rax
    62c1:	48 c1 e0 03          	shl    $0x3,%rax
    62c5:	48 01 c8             	add    %rcx,%rax
    62c8:	c9                   	leave  
    62c9:	c3                   	ret    

00000000000062ca <_ZN3tbb6detail2d112range_vectorINS1_13blocked_rangeImEELh8EE11front_depthEv>:
    62ca:	f3 0f 1e fa          	endbr64 
    62ce:	55                   	push   %rbp
    62cf:	48 89 e5             	mov    %rsp,%rbp
    62d2:	48 89 7d f8          	mov    %rdi,-0x8(%rbp)
    62d6:	48 8b 45 f8          	mov    -0x8(%rbp),%rax
    62da:	0f b6 40 01          	movzbl 0x1(%rax),%eax
    62de:	0f b6 c0             	movzbl %al,%eax
    62e1:	48 8b 55 f8          	mov    -0x8(%rbp),%rdx
    62e5:	48 98                	cltq   
    62e7:	0f b6 44 02 03       	movzbl 0x3(%rdx,%rax,1),%eax
    62ec:	5d                   	pop    %rbp
    62ed:	c3                   	ret    

00000000000062ee <_ZN3tbb6detail2d112range_vectorINS1_13blocked_rangeImEELh8EE9pop_frontEv>:
    62ee:	f3 0f 1e fa          	endbr64 
    62f2:	55                   	push   %rbp
    62f3:	48 89 e5             	mov    %rsp,%rbp
    62f6:	48 83 ec 10          	sub    $0x10,%rsp
    62fa:	48 89 7d f8          	mov    %rdi,-0x8(%rbp)
    62fe:	48 8b 45 f8          	mov    -0x8(%rbp),%rax
    6302:	48 83 c0 10          	add    $0x10,%rax
    6306:	48 89 c7             	mov    %rax,%rdi
    6309:	e8 a2 02 00 00       	call   65b0 <_ZNK3tbb6detail2d013aligned_spaceINS0_2d113blocked_rangeImEELm8EE5beginEv>
    630e:	48 8b 45 f8          	mov    -0x8(%rbp),%rax
    6312:	0f b6 40 01          	movzbl 0x1(%rax),%eax
    6316:	0f b6 d0             	movzbl %al,%edx
    6319:	48 89 d0             	mov    %rdx,%rax
    631c:	48 01 c0             	add    %rax,%rax
    631f:	48 01 d0             	add    %rdx,%rax
    6322:	48 c1 e0 03          	shl    $0x3,%rax
    6326:	48 8b 45 f8          	mov    -0x8(%rbp),%rax
    632a:	0f b6 40 02          	movzbl 0x2(%rax),%eax
    632e:	8d 50 ff             	lea    -0x1(%rax),%edx
    6331:	48 8b 45 f8          	mov    -0x8(%rbp),%rax
    6335:	88 50 02             	mov    %dl,0x2(%rax)
    6338:	48 8b 45 f8          	mov    -0x8(%rbp),%rax
    633c:	0f b6 40 01          	movzbl 0x1(%rax),%eax
    6340:	0f b6 c0             	movzbl %al,%eax
    6343:	83 c0 01             	add    $0x1,%eax
    6346:	99                   	cltd   
    6347:	c1 ea 1d             	shr    $0x1d,%edx
    634a:	01 d0                	add    %edx,%eax
    634c:	83 e0 07             	and    $0x7,%eax
    634f:	29 d0                	sub    %edx,%eax
    6351:	89 c2                	mov    %eax,%edx
    6353:	48 8b 45 f8          	mov    -0x8(%rbp),%rax
    6357:	88 50 01             	mov    %dl,0x1(%rax)
    635a:	90                   	nop
    635b:	c9                   	leave  
    635c:	c3                   	ret    
    635d:	90                   	nop

000000000000635e <_ZN3tbb6detail2d112range_vectorINS1_13blocked_rangeImEELh8EE12is_divisibleEh>:
    635e:	f3 0f 1e fa          	endbr64 
    6362:	55                   	push   %rbp
    6363:	48 89 e5             	mov    %rsp,%rbp
    6366:	48 83 ec 10          	sub    $0x10,%rsp
    636a:	48 89 7d f8          	mov    %rdi,-0x8(%rbp)
    636e:	89 f0                	mov    %esi,%eax
    6370:	88 45 f4             	mov    %al,-0xc(%rbp)
    6373:	48 8b 45 f8          	mov    -0x8(%rbp),%rax
    6377:	48 89 c7             	mov    %rax,%rdi
    637a:	e8 99 02 00 00       	call   6618 <_ZN3tbb6detail2d112range_vectorINS1_13blocked_rangeImEELh8EE10back_depthEv>
    637f:	38 45 f4             	cmp    %al,-0xc(%rbp)
    6382:	76 1f                	jbe    63a3 <_ZN3tbb6detail2d112range_vectorINS1_13blocked_rangeImEELh8EE12is_divisibleEh+0x45>
    6384:	48 8b 45 f8          	mov    -0x8(%rbp),%rax
    6388:	48 89 c7             	mov    %rax,%rdi
    638b:	e8 1a 00 00 00       	call   63aa <_ZN3tbb6detail2d112range_vectorINS1_13blocked_rangeImEELh8EE4backEv>
    6390:	48 89 c7             	mov    %rax,%rdi
    6393:	e8 ec fa ff ff       	call   5e84 <_ZNK3tbb6detail2d113blocked_rangeImE12is_divisibleEv>
    6398:	84 c0                	test   %al,%al
    639a:	74 07                	je     63a3 <_ZN3tbb6detail2d112range_vectorINS1_13blocked_rangeImEELh8EE12is_divisibleEh+0x45>
    639c:	b8 01 00 00 00       	mov    $0x1,%eax
    63a1:	eb 05                	jmp    63a8 <_ZN3tbb6detail2d112range_vectorINS1_13blocked_rangeImEELh8EE12is_divisibleEh+0x4a>
    63a3:	b8 00 00 00 00       	mov    $0x0,%eax
    63a8:	c9                   	leave  
    63a9:	c3                   	ret    

00000000000063aa <_ZN3tbb6detail2d112range_vectorINS1_13blocked_rangeImEELh8EE4backEv>:
    63aa:	f3 0f 1e fa          	endbr64 
    63ae:	55                   	push   %rbp
    63af:	48 89 e5             	mov    %rsp,%rbp
    63b2:	48 83 ec 10          	sub    $0x10,%rsp
    63b6:	48 89 7d f8          	mov    %rdi,-0x8(%rbp)
    63ba:	48 8b 45 f8          	mov    -0x8(%rbp),%rax
    63be:	48 83 c0 10          	add    $0x10,%rax
    63c2:	48 89 c7             	mov    %rax,%rdi
    63c5:	e8 e6 01 00 00       	call   65b0 <_ZNK3tbb6detail2d013aligned_spaceINS0_2d113blocked_rangeImEELm8EE5beginEv>
    63ca:	48 89 c1             	mov    %rax,%rcx
    63cd:	48 8b 45 f8          	mov    -0x8(%rbp),%rax
    63d1:	0f b6 00             	movzbl (%rax),%eax
    63d4:	0f b6 d0             	movzbl %al,%edx
    63d7:	48 89 d0             	mov    %rdx,%rax
    63da:	48 01 c0             	add    %rax,%rax
    63dd:	48 01 d0             	add    %rdx,%rax
    63e0:	48 c1 e0 03          	shl    $0x3,%rax
    63e4:	48 01 c8             	add    %rcx,%rax
    63e7:	c9                   	leave  
    63e8:	c3                   	ret    
    63e9:	90                   	nop

00000000000063ea <_ZN3tbb6detail2d112range_vectorINS1_13blocked_rangeImEELh8EE8pop_backEv>:
    63ea:	f3 0f 1e fa          	endbr64 
    63ee:	55                   	push   %rbp
    63ef:	48 89 e5             	mov    %rsp,%rbp
    63f2:	48 83 ec 10          	sub    $0x10,%rsp
    63f6:	48 89 7d f8          	mov    %rdi,-0x8(%rbp)
    63fa:	48 8b 45 f8          	mov    -0x8(%rbp),%rax
    63fe:	48 83 c0 10          	add    $0x10,%rax
    6402:	48 89 c7             	mov    %rax,%rdi
    6405:	e8 a6 01 00 00       	call   65b0 <_ZNK3tbb6detail2d013aligned_spaceINS0_2d113blocked_rangeImEELm8EE5beginEv>
    640a:	48 8b 45 f8          	mov    -0x8(%rbp),%rax
    640e:	0f b6 00             	movzbl (%rax),%eax
    6411:	0f b6 d0             	movzbl %al,%edx
    6414:	48 89 d0             	mov    %rdx,%rax
    6417:	48 01 c0             	add    %rax,%rax
    641a:	48 01 d0             	add    %rdx,%rax
    641d:	48 c1 e0 03          	shl    $0x3,%rax
    6421:	48 8b 45 f8          	mov    -0x8(%rbp),%rax
    6425:	0f b6 40 02          	movzbl 0x2(%rax),%eax
    6429:	8d 50 ff             	lea    -0x1(%rax),%edx
    642c:	48 8b 45 f8          	mov    -0x8(%rbp),%rax
    6430:	88 50 02             	mov    %dl,0x2(%rax)
    6433:	48 8b 45 f8          	mov    -0x8(%rbp),%rax
    6437:	0f b6 00             	movzbl (%rax),%eax
    643a:	0f b6 c0             	movzbl %al,%eax
    643d:	83 c0 07             	add    $0x7,%eax
    6440:	99                   	cltd   
    6441:	c1 ea 1d             	shr    $0x1d,%edx
    6444:	01 d0                	add    %edx,%eax
    6446:	83 e0 07             	and    $0x7,%eax
    6449:	29 d0                	sub    %edx,%eax
    644b:	89 c2                	mov    %eax,%edx
    644d:	48 8b 45 f8          	mov    -0x8(%rbp),%rax
    6451:	88 10                	mov    %dl,(%rax)
    6453:	90                   	nop
    6454:	c9                   	leave  
    6455:	c3                   	ret    

0000000000006456 <_ZNK3tbb6detail2d112range_vectorINS1_13blocked_rangeImEELh8EE5emptyEv>:
    6456:	f3 0f 1e fa          	endbr64 
    645a:	55                   	push   %rbp
    645b:	48 89 e5             	mov    %rsp,%rbp
    645e:	48 89 7d f8          	mov    %rdi,-0x8(%rbp)
    6462:	48 8b 45 f8          	mov    -0x8(%rbp),%rax
    6466:	0f b6 40 02          	movzbl 0x2(%rax),%eax
    646a:	84 c0                	test   %al,%al
    646c:	0f 94 c0             	sete   %al
    646f:	5d                   	pop    %rbp
    6470:	c3                   	ret    
    6471:	90                   	nop

0000000000006472 <_ZNSt13__atomic_baseIiEmmEv>:
    6472:	f3 0f 1e fa          	endbr64 
    6476:	55                   	push   %rbp
    6477:	48 89 e5             	mov    %rsp,%rbp
    647a:	48 89 7d f8          	mov    %rdi,-0x8(%rbp)
    647e:	48 8b 55 f8          	mov    -0x8(%rbp),%rdx
    6482:	b8 01 00 00 00       	mov    $0x1,%eax
    6487:	f7 d8                	neg    %eax
    6489:	89 c1                	mov    %eax,%ecx
    648b:	89 c8                	mov    %ecx,%eax
    648d:	f0 0f c1 02          	lock xadd %eax,(%rdx)
    6491:	01 c8                	add    %ecx,%eax
    6493:	5d                   	pop    %rbp
    6494:	c3                   	ret    
    6495:	90                   	nop

0000000000006496 <_ZN3tbb6detail2d122small_object_allocator13delete_objectINS1_9tree_nodeEEEvPT_RKNS1_14execution_dataE>:
    6496:	f3 0f 1e fa          	endbr64 
    649a:	55                   	push   %rbp
    649b:	48 89 e5             	mov    %rsp,%rbp
    649e:	48 83 ec 30          	sub    $0x30,%rsp
    64a2:	48 89 7d e8          	mov    %rdi,-0x18(%rbp)
    64a6:	48 89 75 e0          	mov    %rsi,-0x20(%rbp)
    64aa:	48 89 55 d8          	mov    %rdx,-0x28(%rbp)
    64ae:	64 48 8b 04 25 28 00 	mov    %fs:0x28,%rax
    64b5:	00 00 
    64b7:	48 89 45 f8          	mov    %rax,-0x8(%rbp)
    64bb:	31 c0                	xor    %eax,%eax
    64bd:	48 8b 45 e8          	mov    -0x18(%rbp),%rax
    64c1:	48 8b 00             	mov    (%rax),%rax
    64c4:	48 89 45 f0          	mov    %rax,-0x10(%rbp)
    64c8:	48 8b 55 d8          	mov    -0x28(%rbp),%rdx
    64cc:	48 8b 4d e0          	mov    -0x20(%rbp),%rcx
    64d0:	48 8d 45 f0          	lea    -0x10(%rbp),%rax
    64d4:	48 89 ce             	mov    %rcx,%rsi
    64d7:	48 89 c7             	mov    %rax,%rdi
    64da:	e8 5d 01 00 00       	call   663c <_ZN3tbb6detail2d122small_object_allocator10deallocateINS1_9tree_nodeEEEvPT_RKNS1_14execution_dataE>
    64df:	90                   	nop
    64e0:	48 8b 45 f8          	mov    -0x8(%rbp),%rax
    64e4:	64 48 2b 04 25 28 00 	sub    %fs:0x28,%rax
    64eb:	00 00 
    64ed:	74 05                	je     64f4 <_ZN3tbb6detail2d122small_object_allocator13delete_objectINS1_9tree_nodeEEEvPT_RKNS1_14execution_dataE+0x5e>
    64ef:	e8 5c be ff ff       	call   2350 <__stack_chk_fail@plt>
    64f4:	c9                   	leave  
    64f5:	c3                   	ret    

00000000000064f6 <_ZSt7forwardIRN3tbb6detail2d05splitEEOT_RNSt16remove_referenceIS5_E4typeE>:
    64f6:	f3 0f 1e fa          	endbr64 
    64fa:	55                   	push   %rbp
    64fb:	48 89 e5             	mov    %rsp,%rbp
    64fe:	48 89 7d f8          	mov    %rdi,-0x8(%rbp)
    6502:	48 8b 45 f8          	mov    -0x8(%rbp),%rax
    6506:	5d                   	pop    %rbp
    6507:	c3                   	ret    

0000000000006508 <_ZN3tbb6detail2d122small_object_allocator10new_objectINS1_9tree_nodeEJRPNS1_4nodeEiRS2_EEEPT_RNS1_14execution_dataEDpOT0_>:
    6508:	f3 0f 1e fa          	endbr64 
    650c:	55                   	push   %rbp
    650d:	48 89 e5             	mov    %rsp,%rbp
    6510:	41 56                	push   %r14
    6512:	41 55                	push   %r13
    6514:	41 54                	push   %r12
    6516:	53                   	push   %rbx
    6517:	48 83 ec 40          	sub    $0x40,%rsp
    651b:	48 89 7d c8          	mov    %rdi,-0x38(%rbp)
    651f:	48 89 75 c0          	mov    %rsi,-0x40(%rbp)
    6523:	48 89 55 b8          	mov    %rdx,-0x48(%rbp)
    6527:	48 89 4d b0          	mov    %rcx,-0x50(%rbp)
    652b:	4c 89 45 a8          	mov    %r8,-0x58(%rbp)
    652f:	48 8b 45 c8          	mov    -0x38(%rbp),%rax
    6533:	48 8b 55 c0          	mov    -0x40(%rbp),%rdx
    6537:	be 20 00 00 00       	mov    $0x20,%esi
    653c:	48 89 c7             	mov    %rax,%rdi
    653f:	e8 fc bd ff ff       	call   2340 <_ZN3tbb6detail2r18allocateERPNS0_2d117small_object_poolEmRKNS2_14execution_dataE@plt>
    6544:	48 89 45 d0          	mov    %rax,-0x30(%rbp)
    6548:	48 8b 45 b8          	mov    -0x48(%rbp),%rax
    654c:	48 89 c7             	mov    %rax,%rdi
    654f:	e8 33 01 00 00       	call   6687 <_ZSt7forwardIRPN3tbb6detail2d14nodeEEOT_RNSt16remove_referenceIS6_E4typeE>
    6554:	4c 8b 20             	mov    (%rax),%r12
    6557:	48 8b 45 b0          	mov    -0x50(%rbp),%rax
    655b:	48 89 c7             	mov    %rax,%rdi
    655e:	e8 a3 e4 ff ff       	call   4a06 <_ZSt7forwardIiEOT_RNSt16remove_referenceIS0_E4typeE>
    6563:	44 8b 28             	mov    (%rax),%r13d
    6566:	48 8b 45 a8          	mov    -0x58(%rbp),%rax
    656a:	48 89 c7             	mov    %rax,%rdi
    656d:	e8 f3 ee ff ff       	call   5465 <_ZSt7forwardIRN3tbb6detail2d122small_object_allocatorEEOT_RNSt16remove_referenceIS5_E4typeE>
    6572:	49 89 c6             	mov    %rax,%r14
    6575:	48 8b 45 d0          	mov    -0x30(%rbp),%rax
    6579:	48 89 c6             	mov    %rax,%rsi
    657c:	bf 20 00 00 00       	mov    $0x20,%edi
    6581:	e8 79 d3 ff ff       	call   38ff <_ZnwmPv>
    6586:	48 89 c3             	mov    %rax,%rbx
    6589:	4c 89 f1             	mov    %r14,%rcx
    658c:	44 89 ea             	mov    %r13d,%edx
    658f:	4c 89 e6             	mov    %r12,%rsi
    6592:	48 89 df             	mov    %rbx,%rdi
    6595:	e8 c4 e2 ff ff       	call   485e <_ZN3tbb6detail2d19tree_nodeC1EPNS1_4nodeEiRNS1_22small_object_allocatorE>
    659a:	48 89 5d d8          	mov    %rbx,-0x28(%rbp)
    659e:	48 8b 45 d8          	mov    -0x28(%rbp),%rax
    65a2:	48 83 c4 40          	add    $0x40,%rsp
    65a6:	5b                   	pop    %rbx
    65a7:	41 5c                	pop    %r12
    65a9:	41 5d                	pop    %r13
    65ab:	41 5e                	pop    %r14
    65ad:	5d                   	pop    %rbp
    65ae:	c3                   	ret    
    65af:	90                   	nop

00000000000065b0 <_ZNK3tbb6detail2d013aligned_spaceINS0_2d113blocked_rangeImEELm8EE5beginEv>:
    65b0:	f3 0f 1e fa          	endbr64 
    65b4:	55                   	push   %rbp
    65b5:	48 89 e5             	mov    %rsp,%rbp
    65b8:	48 83 ec 10          	sub    $0x10,%rsp
    65bc:	48 89 7d f8          	mov    %rdi,-0x8(%rbp)
    65c0:	48 8b 45 f8          	mov    -0x8(%rbp),%rax
    65c4:	48 89 c7             	mov    %rax,%rdi
    65c7:	e8 cd 00 00 00       	call   6699 <_ZN3tbb6detail2d011punned_castIPNS0_2d113blocked_rangeImEEA192_KhEET_PT0_>
    65cc:	c9                   	leave  
    65cd:	c3                   	ret    

00000000000065ce <_ZN3tbb6detail2d113blocked_rangeImEC1ERS3_NS0_2d05splitE>:
    65ce:	f3 0f 1e fa          	endbr64 
    65d2:	55                   	push   %rbp
    65d3:	48 89 e5             	mov    %rsp,%rbp
    65d6:	48 83 ec 10          	sub    $0x10,%rsp
    65da:	48 89 7d f8          	mov    %rdi,-0x8(%rbp)
    65de:	48 89 75 f0          	mov    %rsi,-0x10(%rbp)
    65e2:	48 8b 45 f0          	mov    -0x10(%rbp),%rax
    65e6:	48 8b 10             	mov    (%rax),%rdx
    65e9:	48 8b 45 f8          	mov    -0x8(%rbp),%rax
    65ed:	48 89 10             	mov    %rdx,(%rax)
    65f0:	48 8b 45 f0          	mov    -0x10(%rbp),%rax
    65f4:	48 89 c7             	mov    %rax,%rdi
    65f7:	e8 b7 00 00 00       	call   66b3 <_ZN3tbb6detail2d113blocked_rangeImE8do_splitERS3_NS0_2d05splitE>
    65fc:	48 8b 55 f8          	mov    -0x8(%rbp),%rdx
    6600:	48 89 42 08          	mov    %rax,0x8(%rdx)
    6604:	48 8b 45 f0          	mov    -0x10(%rbp),%rax
    6608:	48 8b 50 10          	mov    0x10(%rax),%rdx
    660c:	48 8b 45 f8          	mov    -0x8(%rbp),%rax
    6610:	48 89 50 10          	mov    %rdx,0x10(%rax)
    6614:	90                   	nop
    6615:	c9                   	leave  
    6616:	c3                   	ret    
    6617:	90                   	nop

0000000000006618 <_ZN3tbb6detail2d112range_vectorINS1_13blocked_rangeImEELh8EE10back_depthEv>:
    6618:	f3 0f 1e fa          	endbr64 
    661c:	55                   	push   %rbp
    661d:	48 89 e5             	mov    %rsp,%rbp
    6620:	48 89 7d f8          	mov    %rdi,-0x8(%rbp)
    6624:	48 8b 45 f8          	mov    -0x8(%rbp),%rax
    6628:	0f b6 00             	movzbl (%rax),%eax
    662b:	0f b6 c0             	movzbl %al,%eax
    662e:	48 8b 55 f8          	mov    -0x8(%rbp),%rdx
    6632:	48 98                	cltq   
    6634:	0f b6 44 02 03       	movzbl 0x3(%rdx,%rax,1),%eax
    6639:	5d                   	pop    %rbp
    663a:	c3                   	ret    
    663b:	90                   	nop

000000000000663c <_ZN3tbb6detail2d122small_object_allocator10deallocateINS1_9tree_nodeEEEvPT_RKNS1_14execution_dataE>:
    663c:	f3 0f 1e fa          	endbr64 
    6640:	55                   	push   %rbp
    6641:	48 89 e5             	mov    %rsp,%rbp
    6644:	48 83 ec 20          	sub    $0x20,%rsp
    6648:	48 89 7d f8          	mov    %rdi,-0x8(%rbp)
    664c:	48 89 75 f0          	mov    %rsi,-0x10(%rbp)
    6650:	48 89 55 e8          	mov    %rdx,-0x18(%rbp)
    6654:	48 8b 45 f0          	mov    -0x10(%rbp),%rax
    6658:	48 89 c6             	mov    %rax,%rsi
    665b:	bf 04 00 00 00       	mov    $0x4,%edi
    6660:	e8 b9 d5 ff ff       	call   3c1e <_ZN3tbb6detail2d120call_itt_task_notifyENS1_11notify_typeEPv>
    6665:	48 8b 45 f8          	mov    -0x8(%rbp),%rax
    6669:	48 8b 00             	mov    (%rax),%rax
    666c:	48 8b 55 e8          	mov    -0x18(%rbp),%rdx
    6670:	48 8b 75 f0          	mov    -0x10(%rbp),%rsi
    6674:	48 89 d1             	mov    %rdx,%rcx
    6677:	ba 20 00 00 00       	mov    $0x20,%edx
    667c:	48 89 c7             	mov    %rax,%rdi
    667f:	e8 1c bc ff ff       	call   22a0 <_ZN3tbb6detail2r110deallocateERNS0_2d117small_object_poolEPvmRKNS2_14execution_dataE@plt>
    6684:	90                   	nop
    6685:	c9                   	leave  
    6686:	c3                   	ret    

0000000000006687 <_ZSt7forwardIRPN3tbb6detail2d14nodeEEOT_RNSt16remove_referenceIS6_E4typeE>:
    6687:	f3 0f 1e fa          	endbr64 
    668b:	55                   	push   %rbp
    668c:	48 89 e5             	mov    %rsp,%rbp
    668f:	48 89 7d f8          	mov    %rdi,-0x8(%rbp)
    6693:	48 8b 45 f8          	mov    -0x8(%rbp),%rax
    6697:	5d                   	pop    %rbp
    6698:	c3                   	ret    

0000000000006699 <_ZN3tbb6detail2d011punned_castIPNS0_2d113blocked_rangeImEEA192_KhEET_PT0_>:
    6699:	f3 0f 1e fa          	endbr64 
    669d:	55                   	push   %rbp
    669e:	48 89 e5             	mov    %rsp,%rbp
    66a1:	48 89 7d e8          	mov    %rdi,-0x18(%rbp)
    66a5:	48 8b 45 e8          	mov    -0x18(%rbp),%rax
    66a9:	48 89 45 f8          	mov    %rax,-0x8(%rbp)
    66ad:	48 8b 45 f8          	mov    -0x8(%rbp),%rax
    66b1:	5d                   	pop    %rbp
    66b2:	c3                   	ret    

00000000000066b3 <_ZN3tbb6detail2d113blocked_rangeImE8do_splitERS3_NS0_2d05splitE>:
    66b3:	f3 0f 1e fa          	endbr64 
    66b7:	55                   	push   %rbp
    66b8:	48 89 e5             	mov    %rsp,%rbp
    66bb:	48 89 7d e8          	mov    %rdi,-0x18(%rbp)
    66bf:	48 8b 45 e8          	mov    -0x18(%rbp),%rax
    66c3:	48 8b 48 08          	mov    0x8(%rax),%rcx
    66c7:	48 8b 45 e8          	mov    -0x18(%rbp),%rax
    66cb:	48 8b 10             	mov    (%rax),%rdx
    66ce:	48 8b 45 e8          	mov    -0x18(%rbp),%rax
    66d2:	48 8b 70 08          	mov    0x8(%rax),%rsi
    66d6:	48 89 d0             	mov    %rdx,%rax
    66d9:	48 29 f0             	sub    %rsi,%rax
    66dc:	48 d1 e8             	shr    %rax
    66df:	48 01 c8             	add    %rcx,%rax
    66e2:	48 89 45 f8          	mov    %rax,-0x8(%rbp)
    66e6:	48 8b 45 e8          	mov    -0x18(%rbp),%rax
    66ea:	48 8b 55 f8          	mov    -0x8(%rbp),%rdx
    66ee:	48 89 10             	mov    %rdx,(%rax)
    66f1:	48 8b 45 f8          	mov    -0x8(%rbp),%rax
    66f5:	5d                   	pop    %rbp
    66f6:	c3                   	ret    

00000000000066f7 <_ZSt7forwardIRhEOT_RNSt16remove_referenceIS1_E4typeE>:
    66f7:	f3 0f 1e fa          	endbr64 
    66fb:	55                   	push   %rbp
    66fc:	48 89 e5             	mov    %rsp,%rbp
    66ff:	48 89 7d f8          	mov    %rdi,-0x8(%rbp)
    6703:	48 8b 45 f8          	mov    -0x8(%rbp),%rax
    6707:	5d                   	pop    %rbp
    6708:	c3                   	ret    

0000000000006709 <_ZN3tbb6detail2d022get_range_split_objectINS0_2d113blocked_rangeImEENS1_5splitEEEDTclsrNS1_27range_split_object_providerIT_vEE3getfp_EERT0_>:
    6709:	f3 0f 1e fa          	endbr64 
    670d:	55                   	push   %rbp
    670e:	48 89 e5             	mov    %rsp,%rbp
    6711:	48 83 ec 10          	sub    $0x10,%rsp
    6715:	48 89 7d f8          	mov    %rdi,-0x8(%rbp)
    6719:	48 8b 45 f8          	mov    -0x8(%rbp),%rax
    671d:	48 89 c7             	mov    %rax,%rdi
    6720:	e8 02 00 00 00       	call   6727 <_ZN3tbb6detail2d027range_split_object_providerINS0_2d113blocked_rangeImEEvE3getINS1_5splitEEERT_SA_>
    6725:	c9                   	leave  
    6726:	c3                   	ret    

0000000000006727 <_ZN3tbb6detail2d027range_split_object_providerINS0_2d113blocked_rangeImEEvE3getINS1_5splitEEERT_SA_>:
    6727:	f3 0f 1e fa          	endbr64 
    672b:	55                   	push   %rbp
    672c:	48 89 e5             	mov    %rsp,%rbp
    672f:	48 89 7d f8          	mov    %rdi,-0x8(%rbp)
    6733:	48 8b 45 f8          	mov    -0x8(%rbp),%rax
    6737:	5d                   	pop    %rbp
    6738:	c3                   	ret    
    6739:	90                   	nop

000000000000673a <_ZN3tbb6detail2d122dynamic_grainsize_modeINS1_13adaptive_modeINS1_19auto_partition_typeEEEE11align_depthEh>:
    673a:	f3 0f 1e fa          	endbr64 
    673e:	55                   	push   %rbp
    673f:	48 89 e5             	mov    %rsp,%rbp
    6742:	48 89 7d f8          	mov    %rdi,-0x8(%rbp)
    6746:	89 f0                	mov    %esi,%eax
    6748:	88 45 f4             	mov    %al,-0xc(%rbp)
    674b:	48 8b 45 f8          	mov    -0x8(%rbp),%rax
    674f:	0f b6 40 0c          	movzbl 0xc(%rax),%eax
    6753:	2a 45 f4             	sub    -0xc(%rbp),%al
    6756:	89 c2                	mov    %eax,%edx
    6758:	48 8b 45 f8          	mov    -0x8(%rbp),%rax
    675c:	88 50 0c             	mov    %dl,0xc(%rax)
    675f:	90                   	nop
    6760:	5d                   	pop    %rbp
    6761:	c3                   	ret    

Disassembly of section .fini:

0000000000006764 <_fini>:
    6764:	f3 0f 1e fa          	endbr64 
    6768:	48 83 ec 08          	sub    $0x8,%rsp
    676c:	48 83 c4 08          	add    $0x8,%rsp
    6770:	c3                   	ret    
